ARM GAS  C:\Users\admin\AppData\Local\Temp\cctQ0nNg.s 			page 1


   1              		.cpu cortex-m7
   2              		.arch armv7e-m
   3              		.fpu fpv5-d16
   4              		.eabi_attribute 28, 1
   5              		.eabi_attribute 20, 1
   6              		.eabi_attribute 21, 1
   7              		.eabi_attribute 23, 3
   8              		.eabi_attribute 24, 1
   9              		.eabi_attribute 25, 1
  10              		.eabi_attribute 26, 1
  11              		.eabi_attribute 30, 1
  12              		.eabi_attribute 34, 1
  13              		.eabi_attribute 18, 4
  14              		.file	"mpu6050.c"
  15              		.text
  16              	.Ltext0:
  17              		.cfi_sections	.debug_frame
  18              		.section	.text.mpu6050_update_sensitivity,"ax",%progbits
  19              		.align	1
  20              		.syntax unified
  21              		.thumb
  22              		.thumb_func
  24              	mpu6050_update_sensitivity:
  25              	.LVL0:
  26              	.LFB158:
  27              		.file 1 "Core/Lib/mpu6050.c"
   1:Core/Lib/mpu6050.c **** #include "mpu6050.h"
   2:Core/Lib/mpu6050.c **** 
   3:Core/Lib/mpu6050.c **** //private definitions
   4:Core/Lib/mpu6050.c **** //địa chỉ thanh ghi
   5:Core/Lib/mpu6050.c **** #define MPU6050_REG_WHO_AM_I         0x75
   6:Core/Lib/mpu6050.c **** #define MPU6050_REG_PWR_MGMT_1       0x6B
   7:Core/Lib/mpu6050.c **** #define MPU6050_REG_GYRO_CONFIG      0x1B
   8:Core/Lib/mpu6050.c **** #define MPU6050_REG_ACCEL_CONFIG     0x1C
   9:Core/Lib/mpu6050.c **** #define MPU6050_REG_ACCEL_XOUT_H     0x3B
  10:Core/Lib/mpu6050.c **** #define MPU6050_REG_GYRO_XOUT_H      0x43
  11:Core/Lib/mpu6050.c **** #define MPU6050_REG_TEMP_OUT_H       0x41
  12:Core/Lib/mpu6050.c **** 
  13:Core/Lib/mpu6050.c **** //hằng số
  14:Core/Lib/mpu6050.c **** #define MPU6050_WHO_AM_I_VALUE       0x68
  15:Core/Lib/mpu6050.c **** #define MPU6050_DEFAULT_TIMEOUT_MS   100
  16:Core/Lib/mpu6050.c **** #define MPU6050_WAKEUP_DELAY_MS      10      // Thời gian đợi sau wake-up
  17:Core/Lib/mpu6050.c **** 
  18:Core/Lib/mpu6050.c **** //bit config
  19:Core/Lib/mpu6050.c **** #define ACCEL_CONFIG_BIT_POS         3
  20:Core/Lib/mpu6050.c **** #define GYRO_CONFIG_BIT_POS          3
  21:Core/Lib/mpu6050.c **** #define PWR_MGMT_1_RESET_BIT         7
  22:Core/Lib/mpu6050.c **** #define PWR_MGMT_1_SLEEP_BIT         6
  23:Core/Lib/mpu6050.c **** 
  24:Core/Lib/mpu6050.c **** //private variable
  25:Core/Lib/mpu6050.c **** static uint32_t s_default_timeout = MPU6050_DEFAULT_TIMEOUT_MS;
  26:Core/Lib/mpu6050.c **** 
  27:Core/Lib/mpu6050.c **** //private function
  28:Core/Lib/mpu6050.c **** static mpu6050_status_t mpu6050_read_register(mpu6050_handle_t *mpu, uint8_t reg, uint8_t *data, ui
  29:Core/Lib/mpu6050.c **** static mpu6050_status_t mpu6050_write_register(mpu6050_handle_t *mpu, uint8_t reg, uint8_t data, ui
  30:Core/Lib/mpu6050.c **** static mpu6050_status_t mpu6050_read_registers(mpu6050_handle_t *mpu, uint8_t reg, uint8_t *data, u
  31:Core/Lib/mpu6050.c **** static void mpu6050_update_sensitivity(mpu6050_handle_t *mpu, mpu6050_accel_scale_t accel_scale, mp
ARM GAS  C:\Users\admin\AppData\Local\Temp\cctQ0nNg.s 			page 2


  32:Core/Lib/mpu6050.c **** 
  33:Core/Lib/mpu6050.c **** mpu6050_status_t mpu6050_init(mpu6050_handle_t *mpu, const mpu6050_config_t *config)
  34:Core/Lib/mpu6050.c **** {
  35:Core/Lib/mpu6050.c ****   //
  36:Core/Lib/mpu6050.c ****   if (mpu == NULL || config == NULL || config->hi2c == NULL)
  37:Core/Lib/mpu6050.c ****   {
  38:Core/Lib/mpu6050.c ****     return MPU6050_INVALID_PARAM;
  39:Core/Lib/mpu6050.c ****   }
  40:Core/Lib/mpu6050.c **** 
  41:Core/Lib/mpu6050.c ****   //khoi tao struct
  42:Core/Lib/mpu6050.c ****   mpu->i2c = config->hi2c;
  43:Core/Lib/mpu6050.c ****   mpu->device_addr = config->device_addr;
  44:Core/Lib/mpu6050.c ****   mpu->init_state = MPU6050_INIT_STATE_UNINITIALIZED;
  45:Core/Lib/mpu6050.c ****   mpu->wakeup_timestamp = 0;
  46:Core/Lib/mpu6050.c **** 
  47:Core/Lib/mpu6050.c ****   uint32_t timeout = (config->i2c_timeout_ms > 0) ? config->i2c_timeout_ms : s_default_timeout;
  48:Core/Lib/mpu6050.c **** 
  49:Core/Lib/mpu6050.c ****   //1. kiem tra ket noi i2c
  50:Core/Lib/mpu6050.c ****   if (HAL_I2C_IsDeviceReady(mpu->i2c, mpu->device_addr << 1, 3, timeout) != HAL_OK)
  51:Core/Lib/mpu6050.c ****   {
  52:Core/Lib/mpu6050.c ****     return MPU6050_DEVICE_NOT_FOUND;
  53:Core/Lib/mpu6050.c ****   }
  54:Core/Lib/mpu6050.c **** 
  55:Core/Lib/mpu6050.c ****   //2. kiem tra who am i
  56:Core/Lib/mpu6050.c ****   uint8_t who_am_i;
  57:Core/Lib/mpu6050.c ****   if (mpu6050_read_register(mpu, MPU6050_REG_WHO_AM_I, &who_am_i, timeout) != MPU6050_OK)
  58:Core/Lib/mpu6050.c ****   {
  59:Core/Lib/mpu6050.c ****     return MPU6050_I2C_ERROR;
  60:Core/Lib/mpu6050.c ****   }
  61:Core/Lib/mpu6050.c ****   
  62:Core/Lib/mpu6050.c ****   if (who_am_i != MPU6050_WHO_AM_I_VALUE)
  63:Core/Lib/mpu6050.c ****   {
  64:Core/Lib/mpu6050.c ****     return MPU6050_INVALID_WHO_AM_I;
  65:Core/Lib/mpu6050.c ****   }
  66:Core/Lib/mpu6050.c **** 
  67:Core/Lib/mpu6050.c ****   //3. wakeup mpu (clear sleep bit)
  68:Core/Lib/mpu6050.c ****   if (mpu6050_write_register(mpu, MPU6050_REG_PWR_MGMT_1, 0x00, timeout) != MPU6050_OK)
  69:Core/Lib/mpu6050.c ****   {
  70:Core/Lib/mpu6050.c ****     return MPU6050_I2C_ERROR;
  71:Core/Lib/mpu6050.c ****   }
  72:Core/Lib/mpu6050.c **** 
  73:Core/Lib/mpu6050.c ****   //save config
  74:Core/Lib/mpu6050.c ****   mpu->init_state = MPU6050_INIT_STATE_WAKING_UP;
  75:Core/Lib/mpu6050.c ****   mpu->wakeup_timestamp = HAL_GetTick();
  76:Core/Lib/mpu6050.c **** 
  77:Core/Lib/mpu6050.c ****   //save scale
  78:Core/Lib/mpu6050.c ****   mpu6050_update_sensitivity(mpu, config->accel_scale, config->gyro_scale);
  79:Core/Lib/mpu6050.c ****   mpu->pending_config.accel_scale = config->accel_scale;
  80:Core/Lib/mpu6050.c ****   mpu->pending_config.gyro_scale = config->gyro_scale;
  81:Core/Lib/mpu6050.c ****   mpu->pending_config.timeout = timeout;
  82:Core/Lib/mpu6050.c ****   
  83:Core/Lib/mpu6050.c ****   return MPU6050_NOT_READY;
  84:Core/Lib/mpu6050.c **** 
  85:Core/Lib/mpu6050.c **** }
  86:Core/Lib/mpu6050.c **** 
  87:Core/Lib/mpu6050.c **** mpu6050_status_t mpu6050_init_process(mpu6050_handle_t *mpu)
  88:Core/Lib/mpu6050.c **** {
ARM GAS  C:\Users\admin\AppData\Local\Temp\cctQ0nNg.s 			page 3


  89:Core/Lib/mpu6050.c ****   if (mpu == NULL)
  90:Core/Lib/mpu6050.c ****   {
  91:Core/Lib/mpu6050.c ****     return MPU6050_INVALID_PARAM;
  92:Core/Lib/mpu6050.c ****   }
  93:Core/Lib/mpu6050.c **** 
  94:Core/Lib/mpu6050.c ****   if (mpu->init_state == MPU6050_INIT_STATE_UNINITIALIZED)
  95:Core/Lib/mpu6050.c ****   {
  96:Core/Lib/mpu6050.c ****     return MPU6050_ERROR;
  97:Core/Lib/mpu6050.c ****   }
  98:Core/Lib/mpu6050.c **** 
  99:Core/Lib/mpu6050.c ****   if (mpu->init_state == MPU6050_INIT_STATE_WAKING_UP)
 100:Core/Lib/mpu6050.c ****   {
 101:Core/Lib/mpu6050.c ****     uint32_t ms = HAL_GetTick() - mpu->wakeup_timestamp;
 102:Core/Lib/mpu6050.c ****     if (ms < MPU6050_WAKEUP_DELAY_MS)
 103:Core/Lib/mpu6050.c ****     {
 104:Core/Lib/mpu6050.c ****       return MPU6050_NOT_READY;
 105:Core/Lib/mpu6050.c ****     }
 106:Core/Lib/mpu6050.c **** 
 107:Core/Lib/mpu6050.c ****     mpu6050_accel_scale_t accel_scale = mpu->pending_config.accel_scale;
 108:Core/Lib/mpu6050.c ****     mpu6050_gyro_scale_t gyro_scale = mpu->pending_config.gyro_scale;
 109:Core/Lib/mpu6050.c ****     uint32_t timeout = mpu->pending_config.timeout;
 110:Core/Lib/mpu6050.c **** 
 111:Core/Lib/mpu6050.c ****     //config gyro
 112:Core/Lib/mpu6050.c ****     if (mpu6050_write_register(mpu, MPU6050_REG_GYRO_CONFIG, gyro_scale << GYRO_CONFIG_BIT_POS, tim
 113:Core/Lib/mpu6050.c ****     {
 114:Core/Lib/mpu6050.c ****       return MPU6050_I2C_ERROR;
 115:Core/Lib/mpu6050.c ****     }
 116:Core/Lib/mpu6050.c ****     //config accel
 117:Core/Lib/mpu6050.c ****     if (mpu6050_write_register(mpu, MPU6050_REG_ACCEL_CONFIG, (uint8_t) accel_scale << ACCEL_CONFIG
 118:Core/Lib/mpu6050.c ****     {
 119:Core/Lib/mpu6050.c ****       return MPU6050_I2C_ERROR;
 120:Core/Lib/mpu6050.c ****     }
 121:Core/Lib/mpu6050.c ****     
 122:Core/Lib/mpu6050.c ****     mpu->init_state = MPU6050_INIT_STATE_READY;
 123:Core/Lib/mpu6050.c ****     return MPU6050_OK;
 124:Core/Lib/mpu6050.c **** 
 125:Core/Lib/mpu6050.c ****   }
 126:Core/Lib/mpu6050.c ****   
 127:Core/Lib/mpu6050.c ****   return MPU6050_ERROR;
 128:Core/Lib/mpu6050.c ****   
 129:Core/Lib/mpu6050.c ****   
 130:Core/Lib/mpu6050.c **** }
 131:Core/Lib/mpu6050.c **** 
 132:Core/Lib/mpu6050.c **** uint8_t mpu6050_is_ready(const mpu6050_handle_t *mpu)
 133:Core/Lib/mpu6050.c **** {
 134:Core/Lib/mpu6050.c ****   if (mpu == NULL)
 135:Core/Lib/mpu6050.c ****   {
 136:Core/Lib/mpu6050.c ****     return 0;
 137:Core/Lib/mpu6050.c ****   }
 138:Core/Lib/mpu6050.c ****   return (mpu->init_state == MPU6050_INIT_STATE_READY) ? 1 : 0;
 139:Core/Lib/mpu6050.c ****   
 140:Core/Lib/mpu6050.c **** }
 141:Core/Lib/mpu6050.c **** 
 142:Core/Lib/mpu6050.c **** mpu6050_status_t mpu6050_read_all(mpu6050_handle_t *mpu)
 143:Core/Lib/mpu6050.c **** {
 144:Core/Lib/mpu6050.c ****   if (mpu == NULL || mpu->init_state != MPU6050_INIT_STATE_READY)
 145:Core/Lib/mpu6050.c ****   {
ARM GAS  C:\Users\admin\AppData\Local\Temp\cctQ0nNg.s 			page 4


 146:Core/Lib/mpu6050.c ****     return MPU6050_ERROR;
 147:Core/Lib/mpu6050.c ****   }
 148:Core/Lib/mpu6050.c ****   uint8_t buffer[14];
 149:Core/Lib/mpu6050.c **** 
 150:Core/Lib/mpu6050.c ****   //read 14 byteses: 6 accel + 2 temp + 6 gyro
 151:Core/Lib/mpu6050.c ****   if (mpu6050_read_registers(mpu, MPU6050_REG_ACCEL_XOUT_H, buffer, 14, s_default_timeout) != MPU60
 152:Core/Lib/mpu6050.c ****   {
 153:Core/Lib/mpu6050.c ****     return MPU6050_I2C_ERROR;
 154:Core/Lib/mpu6050.c ****   }
 155:Core/Lib/mpu6050.c ****   
 156:Core/Lib/mpu6050.c ****   //parse raw data
 157:Core/Lib/mpu6050.c ****   mpu->accel_raw.x = (int16_t) (buffer[0] << 8) | buffer[1];
 158:Core/Lib/mpu6050.c ****   mpu->accel_raw.y = (int16_t) (buffer[2] << 8) | buffer[3];
 159:Core/Lib/mpu6050.c ****   mpu->accel_raw.z = (int16_t) (buffer[4] << 8) | buffer[5];
 160:Core/Lib/mpu6050.c ****   mpu->temp_raw = (int16_t) (buffer[6] << 8) | buffer[7];
 161:Core/Lib/mpu6050.c ****   mpu->gyro_raw.x = (int16_t) (buffer[8] << 8) | buffer[9];
 162:Core/Lib/mpu6050.c ****   mpu->gyro_raw.y = (int16_t) (buffer[10] << 8) | buffer[11];
 163:Core/Lib/mpu6050.c ****   mpu->gyro_raw.z = (int16_t) (buffer[12] << 8) | buffer[13];
 164:Core/Lib/mpu6050.c **** 
 165:Core/Lib/mpu6050.c ****   //convert to physical unit
 166:Core/Lib/mpu6050.c ****   mpu->accel_scaled.x = (float) mpu->accel_raw.x/mpu->accel_sensitivity;
 167:Core/Lib/mpu6050.c ****   mpu->accel_scaled.y = (float) mpu->accel_raw.y/mpu->accel_sensitivity;
 168:Core/Lib/mpu6050.c ****   mpu->accel_scaled.z = (float) mpu->accel_raw.z/mpu->accel_sensitivity;
 169:Core/Lib/mpu6050.c ****    
 170:Core/Lib/mpu6050.c ****   mpu->gyro_scaled.x = (float) mpu->gyro_raw.x/mpu->gyro_sensitivity;
 171:Core/Lib/mpu6050.c ****   mpu->gyro_scaled.y = (float) mpu->gyro_raw.y/mpu->gyro_sensitivity;
 172:Core/Lib/mpu6050.c ****   mpu->gyro_scaled.z = (float) mpu->gyro_raw.z/mpu->gyro_sensitivity;
 173:Core/Lib/mpu6050.c **** 
 174:Core/Lib/mpu6050.c ****   mpu->temp_scaled = (float) (mpu->temp_raw / 340) + 36.53f;
 175:Core/Lib/mpu6050.c ****   return MPU6050_OK;
 176:Core/Lib/mpu6050.c ****   
 177:Core/Lib/mpu6050.c **** }
 178:Core/Lib/mpu6050.c **** 
 179:Core/Lib/mpu6050.c **** mpu6050_status_t mpu6050_read_accel (mpu6050_handle_t *mpu)
 180:Core/Lib/mpu6050.c **** {
 181:Core/Lib/mpu6050.c ****   if (mpu == NULL || mpu->init_state != MPU6050_INIT_STATE_READY)
 182:Core/Lib/mpu6050.c ****   {
 183:Core/Lib/mpu6050.c ****     return MPU6050_ERROR;
 184:Core/Lib/mpu6050.c ****   }
 185:Core/Lib/mpu6050.c ****   uint8_t buffer[6];
 186:Core/Lib/mpu6050.c ****   if (mpu6050_read_registers(mpu, MPU6050_REG_ACCEL_XOUT_H, buffer, 6, s_default_timeout) != MPU605
 187:Core/Lib/mpu6050.c ****   {
 188:Core/Lib/mpu6050.c ****     return MPU6050_I2C_ERROR;
 189:Core/Lib/mpu6050.c ****   }
 190:Core/Lib/mpu6050.c ****   mpu->accel_raw.x = (int16_t) (buffer[0] << 8) | buffer[1];
 191:Core/Lib/mpu6050.c ****   mpu->accel_raw.y = (int16_t) (buffer[2] << 8) | buffer[3];
 192:Core/Lib/mpu6050.c ****   mpu->accel_raw.z = (int16_t) (buffer[4] << 8) | buffer[5];
 193:Core/Lib/mpu6050.c ****   //convert to physical unit
 194:Core/Lib/mpu6050.c ****   mpu->accel_scaled.x = (float) mpu->accel_raw.x/mpu->accel_sensitivity;
 195:Core/Lib/mpu6050.c ****   mpu->accel_scaled.y = (float) mpu->accel_raw.y/mpu->accel_sensitivity;
 196:Core/Lib/mpu6050.c ****   mpu->accel_scaled.z = (float) mpu->accel_raw.z/mpu->accel_sensitivity;
 197:Core/Lib/mpu6050.c ****   
 198:Core/Lib/mpu6050.c ****   return MPU6050_OK;
 199:Core/Lib/mpu6050.c ****   
 200:Core/Lib/mpu6050.c ****   
 201:Core/Lib/mpu6050.c **** }
 202:Core/Lib/mpu6050.c **** 
ARM GAS  C:\Users\admin\AppData\Local\Temp\cctQ0nNg.s 			page 5


 203:Core/Lib/mpu6050.c **** mpu6050_status_t mpu6050_read_gyro(mpu6050_handle_t *mpu)
 204:Core/Lib/mpu6050.c **** {
 205:Core/Lib/mpu6050.c ****   if (mpu == NULL || mpu->init_state != MPU6050_INIT_STATE_READY)
 206:Core/Lib/mpu6050.c ****   {
 207:Core/Lib/mpu6050.c ****     return MPU6050_ERROR;
 208:Core/Lib/mpu6050.c ****   }
 209:Core/Lib/mpu6050.c ****   uint8_t buffer[6];
 210:Core/Lib/mpu6050.c ****   if (mpu6050_read_registers(mpu, MPU6050_REG_GYRO_XOUT_H, buffer, 6, s_default_timeout) != MPU6050
 211:Core/Lib/mpu6050.c ****   {
 212:Core/Lib/mpu6050.c ****     return MPU6050_I2C_ERROR;
 213:Core/Lib/mpu6050.c ****   }
 214:Core/Lib/mpu6050.c ****   mpu->gyro_raw.x = (int16_t) (buffer[0] << 8) | buffer[1];
 215:Core/Lib/mpu6050.c ****   mpu->gyro_raw.y = (int16_t) (buffer[2] << 8) | buffer[3];
 216:Core/Lib/mpu6050.c ****   mpu->gyro_raw.z = (int16_t) (buffer[4] << 8) | buffer[5];
 217:Core/Lib/mpu6050.c ****   //convert to physical unit
 218:Core/Lib/mpu6050.c ****   mpu->gyro_scaled.x = (float) mpu->gyro_raw.x/mpu->gyro_sensitivity;
 219:Core/Lib/mpu6050.c ****   mpu->gyro_scaled.y = (float) mpu->gyro_raw.y/mpu->gyro_sensitivity;
 220:Core/Lib/mpu6050.c ****   mpu->gyro_scaled.z = (float) mpu->gyro_raw.z/mpu->gyro_sensitivity;
 221:Core/Lib/mpu6050.c ****   
 222:Core/Lib/mpu6050.c ****   return MPU6050_OK;
 223:Core/Lib/mpu6050.c **** }
 224:Core/Lib/mpu6050.c **** 
 225:Core/Lib/mpu6050.c **** mpu6050_status_t mpu6050_read_temp(mpu6050_handle_t *mpu)
 226:Core/Lib/mpu6050.c **** {
 227:Core/Lib/mpu6050.c ****   if (mpu == NULL || mpu->init_state != MPU6050_INIT_STATE_READY)
 228:Core/Lib/mpu6050.c ****   {
 229:Core/Lib/mpu6050.c ****     return MPU6050_ERROR;
 230:Core/Lib/mpu6050.c ****   }
 231:Core/Lib/mpu6050.c ****   uint8_t buffer[2];
 232:Core/Lib/mpu6050.c ****   if (mpu6050_read_registers(mpu, MPU6050_REG_TEMP_OUT_H, buffer, 6, s_default_timeout) != MPU6050_
 233:Core/Lib/mpu6050.c ****   {
 234:Core/Lib/mpu6050.c ****     return MPU6050_I2C_ERROR;
 235:Core/Lib/mpu6050.c ****   }
 236:Core/Lib/mpu6050.c ****   mpu->temp_raw = (int16_t) (buffer[0] << 8) | buffer[1];
 237:Core/Lib/mpu6050.c ****   mpu->temp_scaled = (float) (mpu->temp_raw / 340) + 36.53f;
 238:Core/Lib/mpu6050.c ****   return MPU6050_OK;
 239:Core/Lib/mpu6050.c **** }
 240:Core/Lib/mpu6050.c **** 
 241:Core/Lib/mpu6050.c **** mpu6050_status_t mpu6050_reset(mpu6050_handle_t *mpu)
 242:Core/Lib/mpu6050.c **** {
 243:Core/Lib/mpu6050.c ****   if (mpu == NULL)
 244:Core/Lib/mpu6050.c ****   {
 245:Core/Lib/mpu6050.c ****     return MPU6050_INVALID_PARAM;
 246:Core/Lib/mpu6050.c ****   }
 247:Core/Lib/mpu6050.c **** 
 248:Core/Lib/mpu6050.c ****   //set reset bit
 249:Core/Lib/mpu6050.c ****   if (mpu6050_write_register(mpu, MPU6050_REG_PWR_MGMT_1, (1 << PWR_MGMT_1_RESET_BIT), s_default_ti
 250:Core/Lib/mpu6050.c ****   {
 251:Core/Lib/mpu6050.c ****     return MPU6050_I2C_ERROR;
 252:Core/Lib/mpu6050.c ****   }
 253:Core/Lib/mpu6050.c ****   mpu->init_state = MPU6050_INIT_STATE_UNINITIALIZED;
 254:Core/Lib/mpu6050.c ****   return MPU6050_OK;
 255:Core/Lib/mpu6050.c ****   
 256:Core/Lib/mpu6050.c ****   
 257:Core/Lib/mpu6050.c **** }
 258:Core/Lib/mpu6050.c **** 
 259:Core/Lib/mpu6050.c **** static mpu6050_status_t mpu6050_read_register(mpu6050_handle_t *mpu, uint8_t reg, uint8_t *data, ui
ARM GAS  C:\Users\admin\AppData\Local\Temp\cctQ0nNg.s 			page 6


 260:Core/Lib/mpu6050.c **** {
 261:Core/Lib/mpu6050.c ****   if (HAL_I2C_Mem_Read(mpu->i2c, mpu->device_addr << 1, reg, I2C_MEMADD_SIZE_8BIT, data, 1, timeout
 262:Core/Lib/mpu6050.c ****   {
 263:Core/Lib/mpu6050.c ****     return MPU6050_I2C_ERROR;
 264:Core/Lib/mpu6050.c ****   }
 265:Core/Lib/mpu6050.c ****   return MPU6050_OK;
 266:Core/Lib/mpu6050.c **** }
 267:Core/Lib/mpu6050.c **** 
 268:Core/Lib/mpu6050.c **** static mpu6050_status_t mpu6050_write_register(mpu6050_handle_t *mpu, uint8_t reg, uint8_t data, ui
 269:Core/Lib/mpu6050.c **** {
 270:Core/Lib/mpu6050.c ****   if (HAL_I2C_Mem_Write(mpu->i2c, mpu->device_addr << 1, reg, I2C_MEMADD_SIZE_8BIT, &data, 1, timeo
 271:Core/Lib/mpu6050.c ****   {
 272:Core/Lib/mpu6050.c ****     return MPU6050_I2C_ERROR;
 273:Core/Lib/mpu6050.c ****   }
 274:Core/Lib/mpu6050.c ****   return MPU6050_OK;
 275:Core/Lib/mpu6050.c **** }
 276:Core/Lib/mpu6050.c **** 
 277:Core/Lib/mpu6050.c **** /**
 278:Core/Lib/mpu6050.c ****  * @brief hàm đọc nhiều thanh ghi cùng 1 lúc -> phục vụ read all
 279:Core/Lib/mpu6050.c ****  * 
 280:Core/Lib/mpu6050.c ****  * @param mpu 
 281:Core/Lib/mpu6050.c ****  * @param reg: bắt đầu từ thanh ghi reg và tăng dần theo length
 282:Core/Lib/mpu6050.c ****  * @param data 
 283:Core/Lib/mpu6050.c ****  * @param length : tổng thanh ghi muốn đọc
 284:Core/Lib/mpu6050.c ****  * @param timeout 
 285:Core/Lib/mpu6050.c ****  * @return mpu6050_status_t 
 286:Core/Lib/mpu6050.c ****  */
 287:Core/Lib/mpu6050.c **** static mpu6050_status_t mpu6050_read_registers(mpu6050_handle_t *mpu, uint8_t reg, uint8_t *data, u
 288:Core/Lib/mpu6050.c **** {
 289:Core/Lib/mpu6050.c ****   if (HAL_I2C_Mem_Read(mpu->i2c, mpu->device_addr << 1, reg, I2C_MEMADD_SIZE_8BIT, data, length, ti
 290:Core/Lib/mpu6050.c ****   {
 291:Core/Lib/mpu6050.c ****     return MPU6050_I2C_ERROR;
 292:Core/Lib/mpu6050.c ****   }
 293:Core/Lib/mpu6050.c ****   return MPU6050_OK;
 294:Core/Lib/mpu6050.c **** }
 295:Core/Lib/mpu6050.c **** 
 296:Core/Lib/mpu6050.c **** static void mpu6050_update_sensitivity(mpu6050_handle_t *mpu, mpu6050_accel_scale_t accel_scale, mp
 297:Core/Lib/mpu6050.c **** {
  28              		.loc 1 297 1 view -0
  29              		.cfi_startproc
  30              		@ args = 0, pretend = 0, frame = 0
  31              		@ frame_needed = 0, uses_anonymous_args = 0
  32              		@ link register save eliminated.
 298:Core/Lib/mpu6050.c ****   switch (accel_scale)
  33              		.loc 1 298 3 view .LVU1
  34 0000 0329     		cmp	r1, #3
  35 0002 12D8     		bhi	.L2
  36 0004 DFE801F0 		tbb	[pc, r1]
  37              	.L4:
  38 0008 02       		.byte	(.L7-.L4)/2
  39 0009 06       		.byte	(.L6-.L4)/2
  40 000a 0A       		.byte	(.L5-.L4)/2
  41 000b 0E       		.byte	(.L3-.L4)/2
  42              		.p2align 1
  43              	.L7:
 299:Core/Lib/mpu6050.c ****   {
 300:Core/Lib/mpu6050.c ****   case MPU6050_ACCEL_SCALE_2G:
ARM GAS  C:\Users\admin\AppData\Local\Temp\cctQ0nNg.s 			page 7


 301:Core/Lib/mpu6050.c ****     mpu->accel_sensitivity = 16384.0f;
  44              		.loc 1 301 5 view .LVU2
  45              		.loc 1 301 28 is_stmt 0 view .LVU3
  46 000c 4FF08D43 		mov	r3, #1182793728
  47 0010 0364     		str	r3, [r0, #64]	@ float
 302:Core/Lib/mpu6050.c ****     break;
  48              		.loc 1 302 5 is_stmt 1 view .LVU4
  49 0012 0DE0     		b	.L8
  50              	.L6:
 303:Core/Lib/mpu6050.c ****   case MPU6050_ACCEL_SCALE_4G:
 304:Core/Lib/mpu6050.c ****     mpu->accel_sensitivity = 8192.0f;
  51              		.loc 1 304 5 view .LVU5
  52              		.loc 1 304 28 is_stmt 0 view .LVU6
  53 0014 4FF08C43 		mov	r3, #1174405120
  54 0018 0364     		str	r3, [r0, #64]	@ float
 305:Core/Lib/mpu6050.c ****     break;
  55              		.loc 1 305 5 is_stmt 1 view .LVU7
  56 001a 09E0     		b	.L8
  57              	.L5:
 306:Core/Lib/mpu6050.c ****   case MPU6050_ACCEL_SCALE_8G:
 307:Core/Lib/mpu6050.c ****     mpu->accel_sensitivity = 4096.0f;
  58              		.loc 1 307 5 view .LVU8
  59              		.loc 1 307 28 is_stmt 0 view .LVU9
  60 001c 4FF08B43 		mov	r3, #1166016512
  61 0020 0364     		str	r3, [r0, #64]	@ float
 308:Core/Lib/mpu6050.c ****     break;
  62              		.loc 1 308 5 is_stmt 1 view .LVU10
  63 0022 05E0     		b	.L8
  64              	.L3:
 309:Core/Lib/mpu6050.c ****   case MPU6050_ACCEL_SCALE_16G:
 310:Core/Lib/mpu6050.c ****     mpu->accel_sensitivity = 2048.0f;
  65              		.loc 1 310 5 view .LVU11
  66              		.loc 1 310 28 is_stmt 0 view .LVU12
  67 0024 4FF08A43 		mov	r3, #1157627904
  68 0028 0364     		str	r3, [r0, #64]	@ float
  69              	.L2:
 311:Core/Lib/mpu6050.c ****   default:
 312:Core/Lib/mpu6050.c ****     mpu->accel_sensitivity = 16384.0f;
  70              		.loc 1 312 5 is_stmt 1 view .LVU13
  71              		.loc 1 312 28 is_stmt 0 view .LVU14
  72 002a 4FF08D43 		mov	r3, #1182793728
  73 002e 0364     		str	r3, [r0, #64]	@ float
 313:Core/Lib/mpu6050.c ****     break;
  74              		.loc 1 313 5 is_stmt 1 view .LVU15
  75              	.L8:
 314:Core/Lib/mpu6050.c ****   }
 315:Core/Lib/mpu6050.c **** 
 316:Core/Lib/mpu6050.c ****   switch (gyro_scale)
  76              		.loc 1 316 3 view .LVU16
  77 0030 032A     		cmp	r2, #3
  78 0032 0FD8     		bhi	.L9
  79 0034 DFE802F0 		tbb	[pc, r2]
  80              	.L11:
  81 0038 02       		.byte	(.L14-.L11)/2
  82 0039 05       		.byte	(.L13-.L11)/2
  83 003a 08       		.byte	(.L12-.L11)/2
  84 003b 0B       		.byte	(.L10-.L11)/2
ARM GAS  C:\Users\admin\AppData\Local\Temp\cctQ0nNg.s 			page 8


  85              		.p2align 1
  86              	.L14:
 317:Core/Lib/mpu6050.c ****   {
 318:Core/Lib/mpu6050.c ****   case MPU6050_GYRO_SCALE_250DPS:
 319:Core/Lib/mpu6050.c ****     mpu->gyro_sensitivity = 131.0f;
  87              		.loc 1 319 5 view .LVU17
  88              		.loc 1 319 27 is_stmt 0 view .LVU18
  89 003c 074B     		ldr	r3, .L16
  90 003e 4364     		str	r3, [r0, #68]	@ float
 320:Core/Lib/mpu6050.c ****     break;
  91              		.loc 1 320 5 is_stmt 1 view .LVU19
  92 0040 7047     		bx	lr
  93              	.L13:
 321:Core/Lib/mpu6050.c ****   case MPU6050_GYRO_SCALE_500DPS:
 322:Core/Lib/mpu6050.c ****     mpu->gyro_sensitivity = 65.5f;
  94              		.loc 1 322 5 view .LVU20
  95              		.loc 1 322 27 is_stmt 0 view .LVU21
  96 0042 074B     		ldr	r3, .L16+4
  97 0044 4364     		str	r3, [r0, #68]	@ float
 323:Core/Lib/mpu6050.c ****     break;
  98              		.loc 1 323 5 is_stmt 1 view .LVU22
  99 0046 7047     		bx	lr
 100              	.L12:
 324:Core/Lib/mpu6050.c ****   case MPU6050_GYRO_SCALE_1000DPS:
 325:Core/Lib/mpu6050.c ****     mpu->gyro_sensitivity = 32.8f;
 101              		.loc 1 325 5 view .LVU23
 102              		.loc 1 325 27 is_stmt 0 view .LVU24
 103 0048 064B     		ldr	r3, .L16+8
 104 004a 4364     		str	r3, [r0, #68]	@ float
 326:Core/Lib/mpu6050.c ****     break;
 105              		.loc 1 326 5 is_stmt 1 view .LVU25
 106 004c 7047     		bx	lr
 107              	.L10:
 327:Core/Lib/mpu6050.c ****   case MPU6050_GYRO_SCALE_2000DPS:
 328:Core/Lib/mpu6050.c ****     mpu->gyro_sensitivity = 16.4f;
 108              		.loc 1 328 5 view .LVU26
 109              		.loc 1 328 27 is_stmt 0 view .LVU27
 110 004e 064B     		ldr	r3, .L16+12
 111 0050 4364     		str	r3, [r0, #68]	@ float
 329:Core/Lib/mpu6050.c ****     break;
 112              		.loc 1 329 5 is_stmt 1 view .LVU28
 113 0052 7047     		bx	lr
 114              	.L9:
 330:Core/Lib/mpu6050.c ****   default:
 331:Core/Lib/mpu6050.c ****     mpu->gyro_sensitivity = 131.0f;
 115              		.loc 1 331 5 view .LVU29
 116              		.loc 1 331 27 is_stmt 0 view .LVU30
 117 0054 014B     		ldr	r3, .L16
 118 0056 4364     		str	r3, [r0, #68]	@ float
 332:Core/Lib/mpu6050.c ****     break;
 119              		.loc 1 332 5 is_stmt 1 view .LVU31
 333:Core/Lib/mpu6050.c ****   }
 334:Core/Lib/mpu6050.c **** }
 120              		.loc 1 334 1 is_stmt 0 view .LVU32
 121 0058 7047     		bx	lr
 122              	.L17:
 123 005a 00BF     		.align	2
ARM GAS  C:\Users\admin\AppData\Local\Temp\cctQ0nNg.s 			page 9


 124              	.L16:
 125 005c 00000343 		.word	1124270080
 126 0060 00008342 		.word	1115881472
 127 0064 33330342 		.word	1107505971
 128 0068 33338341 		.word	1099117363
 129              		.cfi_endproc
 130              	.LFE158:
 132              		.section	.text.mpu6050_read_register,"ax",%progbits
 133              		.align	1
 134              		.syntax unified
 135              		.thumb
 136              		.thumb_func
 138              	mpu6050_read_register:
 139              	.LVL1:
 140              	.LFB155:
 260:Core/Lib/mpu6050.c ****   if (HAL_I2C_Mem_Read(mpu->i2c, mpu->device_addr << 1, reg, I2C_MEMADD_SIZE_8BIT, data, 1, timeout
 141              		.loc 1 260 1 is_stmt 1 view -0
 142              		.cfi_startproc
 143              		@ args = 0, pretend = 0, frame = 0
 144              		@ frame_needed = 0, uses_anonymous_args = 0
 260:Core/Lib/mpu6050.c ****   if (HAL_I2C_Mem_Read(mpu->i2c, mpu->device_addr << 1, reg, I2C_MEMADD_SIZE_8BIT, data, 1, timeout
 145              		.loc 1 260 1 is_stmt 0 view .LVU34
 146 0000 00B5     		push	{lr}
 147              	.LCFI0:
 148              		.cfi_def_cfa_offset 4
 149              		.cfi_offset 14, -4
 150 0002 85B0     		sub	sp, sp, #20
 151              	.LCFI1:
 152              		.cfi_def_cfa_offset 24
 261:Core/Lib/mpu6050.c ****   {
 153              		.loc 1 261 3 is_stmt 1 view .LVU35
 261:Core/Lib/mpu6050.c ****   {
 154              		.loc 1 261 37 is_stmt 0 view .LVU36
 155 0004 90F804C0 		ldrb	ip, [r0, #4]	@ zero_extendqisi2
 261:Core/Lib/mpu6050.c ****   {
 156              		.loc 1 261 7 view .LVU37
 157 0008 0293     		str	r3, [sp, #8]
 158 000a 0123     		movs	r3, #1
 159              	.LVL2:
 261:Core/Lib/mpu6050.c ****   {
 160              		.loc 1 261 7 view .LVU38
 161 000c 0193     		str	r3, [sp, #4]
 162 000e 0092     		str	r2, [sp]
 163 0010 0A46     		mov	r2, r1
 164              	.LVL3:
 261:Core/Lib/mpu6050.c ****   {
 165              		.loc 1 261 7 view .LVU39
 166 0012 0CFA03F1 		lsl	r1, ip, r3
 167              	.LVL4:
 261:Core/Lib/mpu6050.c ****   {
 168              		.loc 1 261 7 view .LVU40
 169 0016 0068     		ldr	r0, [r0]
 170              	.LVL5:
 261:Core/Lib/mpu6050.c ****   {
 171              		.loc 1 261 7 view .LVU41
 172 0018 FFF7FEFF 		bl	HAL_I2C_Mem_Read
 173              	.LVL6:
ARM GAS  C:\Users\admin\AppData\Local\Temp\cctQ0nNg.s 			page 10


 261:Core/Lib/mpu6050.c ****   {
 174              		.loc 1 261 6 view .LVU42
 175 001c 10B9     		cbnz	r0, .L22
 176              	.L19:
 266:Core/Lib/mpu6050.c **** 
 177              		.loc 1 266 1 view .LVU43
 178 001e 05B0     		add	sp, sp, #20
 179              	.LCFI2:
 180              		.cfi_remember_state
 181              		.cfi_def_cfa_offset 4
 182              		@ sp needed
 183 0020 5DF804FB 		ldr	pc, [sp], #4
 184              	.L22:
 185              	.LCFI3:
 186              		.cfi_restore_state
 263:Core/Lib/mpu6050.c ****   }
 187              		.loc 1 263 12 view .LVU44
 188 0024 0220     		movs	r0, #2
 189 0026 FAE7     		b	.L19
 190              		.cfi_endproc
 191              	.LFE155:
 193              		.section	.text.mpu6050_read_registers,"ax",%progbits
 194              		.align	1
 195              		.syntax unified
 196              		.thumb
 197              		.thumb_func
 199              	mpu6050_read_registers:
 200              	.LVL7:
 201              	.LFB157:
 288:Core/Lib/mpu6050.c ****   if (HAL_I2C_Mem_Read(mpu->i2c, mpu->device_addr << 1, reg, I2C_MEMADD_SIZE_8BIT, data, length, ti
 202              		.loc 1 288 1 is_stmt 1 view -0
 203              		.cfi_startproc
 204              		@ args = 4, pretend = 0, frame = 0
 205              		@ frame_needed = 0, uses_anonymous_args = 0
 288:Core/Lib/mpu6050.c ****   if (HAL_I2C_Mem_Read(mpu->i2c, mpu->device_addr << 1, reg, I2C_MEMADD_SIZE_8BIT, data, length, ti
 206              		.loc 1 288 1 is_stmt 0 view .LVU46
 207 0000 10B5     		push	{r4, lr}
 208              	.LCFI4:
 209              		.cfi_def_cfa_offset 8
 210              		.cfi_offset 4, -8
 211              		.cfi_offset 14, -4
 212 0002 84B0     		sub	sp, sp, #16
 213              	.LCFI5:
 214              		.cfi_def_cfa_offset 24
 289:Core/Lib/mpu6050.c ****   {
 215              		.loc 1 289 3 is_stmt 1 view .LVU47
 289:Core/Lib/mpu6050.c ****   {
 216              		.loc 1 289 37 is_stmt 0 view .LVU48
 217 0004 90F804C0 		ldrb	ip, [r0, #4]	@ zero_extendqisi2
 289:Core/Lib/mpu6050.c ****   {
 218              		.loc 1 289 7 view .LVU49
 219 0008 069C     		ldr	r4, [sp, #24]
 220 000a 0294     		str	r4, [sp, #8]
 221 000c 0193     		str	r3, [sp, #4]
 222 000e 0092     		str	r2, [sp]
 223 0010 0123     		movs	r3, #1
 224              	.LVL8:
ARM GAS  C:\Users\admin\AppData\Local\Temp\cctQ0nNg.s 			page 11


 289:Core/Lib/mpu6050.c ****   {
 225              		.loc 1 289 7 view .LVU50
 226 0012 0A46     		mov	r2, r1
 227              	.LVL9:
 289:Core/Lib/mpu6050.c ****   {
 228              		.loc 1 289 7 view .LVU51
 229 0014 0CFA03F1 		lsl	r1, ip, r3
 230              	.LVL10:
 289:Core/Lib/mpu6050.c ****   {
 231              		.loc 1 289 7 view .LVU52
 232 0018 0068     		ldr	r0, [r0]
 233              	.LVL11:
 289:Core/Lib/mpu6050.c ****   {
 234              		.loc 1 289 7 view .LVU53
 235 001a FFF7FEFF 		bl	HAL_I2C_Mem_Read
 236              	.LVL12:
 289:Core/Lib/mpu6050.c ****   {
 237              		.loc 1 289 6 view .LVU54
 238 001e 08B9     		cbnz	r0, .L27
 239              	.L24:
 294:Core/Lib/mpu6050.c **** 
 240              		.loc 1 294 1 view .LVU55
 241 0020 04B0     		add	sp, sp, #16
 242              	.LCFI6:
 243              		.cfi_remember_state
 244              		.cfi_def_cfa_offset 8
 245              		@ sp needed
 246 0022 10BD     		pop	{r4, pc}
 247              	.LVL13:
 248              	.L27:
 249              	.LCFI7:
 250              		.cfi_restore_state
 291:Core/Lib/mpu6050.c ****   }
 251              		.loc 1 291 12 view .LVU56
 252 0024 0220     		movs	r0, #2
 253 0026 FBE7     		b	.L24
 254              		.cfi_endproc
 255              	.LFE157:
 257              		.section	.text.mpu6050_write_register,"ax",%progbits
 258              		.align	1
 259              		.syntax unified
 260              		.thumb
 261              		.thumb_func
 263              	mpu6050_write_register:
 264              	.LVL14:
 265              	.LFB156:
 269:Core/Lib/mpu6050.c ****   if (HAL_I2C_Mem_Write(mpu->i2c, mpu->device_addr << 1, reg, I2C_MEMADD_SIZE_8BIT, &data, 1, timeo
 266              		.loc 1 269 1 is_stmt 1 view -0
 267              		.cfi_startproc
 268              		@ args = 0, pretend = 0, frame = 8
 269              		@ frame_needed = 0, uses_anonymous_args = 0
 269:Core/Lib/mpu6050.c ****   if (HAL_I2C_Mem_Write(mpu->i2c, mpu->device_addr << 1, reg, I2C_MEMADD_SIZE_8BIT, &data, 1, timeo
 270              		.loc 1 269 1 is_stmt 0 view .LVU58
 271 0000 00B5     		push	{lr}
 272              	.LCFI8:
 273              		.cfi_def_cfa_offset 4
 274              		.cfi_offset 14, -4
ARM GAS  C:\Users\admin\AppData\Local\Temp\cctQ0nNg.s 			page 12


 275 0002 87B0     		sub	sp, sp, #28
 276              	.LCFI9:
 277              		.cfi_def_cfa_offset 32
 278 0004 8DF81720 		strb	r2, [sp, #23]
 270:Core/Lib/mpu6050.c ****   {
 279              		.loc 1 270 3 is_stmt 1 view .LVU59
 270:Core/Lib/mpu6050.c ****   {
 280              		.loc 1 270 38 is_stmt 0 view .LVU60
 281 0008 90F804C0 		ldrb	ip, [r0, #4]	@ zero_extendqisi2
 270:Core/Lib/mpu6050.c ****   {
 282              		.loc 1 270 7 view .LVU61
 283 000c 0293     		str	r3, [sp, #8]
 284 000e 0123     		movs	r3, #1
 285              	.LVL15:
 270:Core/Lib/mpu6050.c ****   {
 286              		.loc 1 270 7 view .LVU62
 287 0010 0193     		str	r3, [sp, #4]
 288 0012 0DF11702 		add	r2, sp, #23
 289              	.LVL16:
 270:Core/Lib/mpu6050.c ****   {
 290              		.loc 1 270 7 view .LVU63
 291 0016 0092     		str	r2, [sp]
 292 0018 0A46     		mov	r2, r1
 293              	.LVL17:
 270:Core/Lib/mpu6050.c ****   {
 294              		.loc 1 270 7 view .LVU64
 295 001a 0CFA03F1 		lsl	r1, ip, r3
 296              	.LVL18:
 270:Core/Lib/mpu6050.c ****   {
 297              		.loc 1 270 7 view .LVU65
 298 001e 0068     		ldr	r0, [r0]
 299              	.LVL19:
 270:Core/Lib/mpu6050.c ****   {
 300              		.loc 1 270 7 view .LVU66
 301 0020 FFF7FEFF 		bl	HAL_I2C_Mem_Write
 302              	.LVL20:
 270:Core/Lib/mpu6050.c ****   {
 303              		.loc 1 270 6 view .LVU67
 304 0024 10B9     		cbnz	r0, .L32
 305              	.L29:
 275:Core/Lib/mpu6050.c **** 
 306              		.loc 1 275 1 view .LVU68
 307 0026 07B0     		add	sp, sp, #28
 308              	.LCFI10:
 309              		.cfi_remember_state
 310              		.cfi_def_cfa_offset 4
 311              		@ sp needed
 312 0028 5DF804FB 		ldr	pc, [sp], #4
 313              	.L32:
 314              	.LCFI11:
 315              		.cfi_restore_state
 272:Core/Lib/mpu6050.c ****   }
 316              		.loc 1 272 12 view .LVU69
 317 002c 0220     		movs	r0, #2
 318 002e FAE7     		b	.L29
 319              		.cfi_endproc
 320              	.LFE156:
ARM GAS  C:\Users\admin\AppData\Local\Temp\cctQ0nNg.s 			page 13


 322              		.section	.text.mpu6050_init,"ax",%progbits
 323              		.align	1
 324              		.global	mpu6050_init
 325              		.syntax unified
 326              		.thumb
 327              		.thumb_func
 329              	mpu6050_init:
 330              	.LVL21:
 331              	.LFB147:
  34:Core/Lib/mpu6050.c ****   //
 332              		.loc 1 34 1 is_stmt 1 view -0
 333              		.cfi_startproc
 334              		@ args = 0, pretend = 0, frame = 8
 335              		@ frame_needed = 0, uses_anonymous_args = 0
  36:Core/Lib/mpu6050.c ****   {
 336              		.loc 1 36 3 view .LVU71
  36:Core/Lib/mpu6050.c ****   {
 337              		.loc 1 36 6 is_stmt 0 view .LVU72
 338 0000 0029     		cmp	r1, #0
 339 0002 18BF     		it	ne
 340 0004 0028     		cmpne	r0, #0
 341 0006 44D0     		beq	.L36
  34:Core/Lib/mpu6050.c ****   //
 342              		.loc 1 34 1 discriminator 1 view .LVU73
 343 0008 70B5     		push	{r4, r5, r6, lr}
 344              	.LCFI12:
 345              		.cfi_def_cfa_offset 16
 346              		.cfi_offset 4, -16
 347              		.cfi_offset 5, -12
 348              		.cfi_offset 6, -8
 349              		.cfi_offset 14, -4
 350 000a 82B0     		sub	sp, sp, #8
 351              	.LCFI13:
 352              		.cfi_def_cfa_offset 24
 353 000c 0446     		mov	r4, r0
 354 000e 0D46     		mov	r5, r1
  36:Core/Lib/mpu6050.c ****   {
 355              		.loc 1 36 46 discriminator 1 view .LVU74
 356 0010 0868     		ldr	r0, [r1]
 357              	.LVL22:
  36:Core/Lib/mpu6050.c ****   {
 358              		.loc 1 36 37 discriminator 1 view .LVU75
 359 0012 0028     		cmp	r0, #0
 360 0014 3FD0     		beq	.L37
  42:Core/Lib/mpu6050.c ****   mpu->device_addr = config->device_addr;
 361              		.loc 1 42 3 is_stmt 1 view .LVU76
  42:Core/Lib/mpu6050.c ****   mpu->device_addr = config->device_addr;
 362              		.loc 1 42 12 is_stmt 0 view .LVU77
 363 0016 2060     		str	r0, [r4]
  43:Core/Lib/mpu6050.c ****   mpu->init_state = MPU6050_INIT_STATE_UNINITIALIZED;
 364              		.loc 1 43 3 is_stmt 1 view .LVU78
  43:Core/Lib/mpu6050.c ****   mpu->init_state = MPU6050_INIT_STATE_UNINITIALIZED;
 365              		.loc 1 43 28 is_stmt 0 view .LVU79
 366 0018 0979     		ldrb	r1, [r1, #4]	@ zero_extendqisi2
 367              	.LVL23:
  43:Core/Lib/mpu6050.c ****   mpu->init_state = MPU6050_INIT_STATE_UNINITIALIZED;
 368              		.loc 1 43 20 view .LVU80
ARM GAS  C:\Users\admin\AppData\Local\Temp\cctQ0nNg.s 			page 14


 369 001a 2171     		strb	r1, [r4, #4]
  44:Core/Lib/mpu6050.c ****   mpu->wakeup_timestamp = 0;
 370              		.loc 1 44 3 is_stmt 1 view .LVU81
  44:Core/Lib/mpu6050.c ****   mpu->wakeup_timestamp = 0;
 371              		.loc 1 44 19 is_stmt 0 view .LVU82
 372 001c 0023     		movs	r3, #0
 373 001e 84F84830 		strb	r3, [r4, #72]
  45:Core/Lib/mpu6050.c **** 
 374              		.loc 1 45 3 is_stmt 1 view .LVU83
  45:Core/Lib/mpu6050.c **** 
 375              		.loc 1 45 25 is_stmt 0 view .LVU84
 376 0022 E364     		str	r3, [r4, #76]
  47:Core/Lib/mpu6050.c **** 
 377              		.loc 1 47 3 is_stmt 1 view .LVU85
  47:Core/Lib/mpu6050.c **** 
 378              		.loc 1 47 29 is_stmt 0 view .LVU86
 379 0024 AE68     		ldr	r6, [r5, #8]
  47:Core/Lib/mpu6050.c **** 
 380              		.loc 1 47 76 view .LVU87
 381 0026 06B9     		cbnz	r6, .L35
 382 0028 6426     		movs	r6, #100
 383              	.L35:
 384              	.LVL24:
  50:Core/Lib/mpu6050.c ****   {
 385              		.loc 1 50 3 is_stmt 1 discriminator 4 view .LVU88
  50:Core/Lib/mpu6050.c ****   {
 386              		.loc 1 50 7 is_stmt 0 discriminator 4 view .LVU89
 387 002a 3346     		mov	r3, r6
 388 002c 0322     		movs	r2, #3
 389 002e 4900     		lsls	r1, r1, #1
 390 0030 FFF7FEFF 		bl	HAL_I2C_IsDeviceReady
 391              	.LVL25:
  50:Core/Lib/mpu6050.c ****   {
 392              		.loc 1 50 6 discriminator 4 view .LVU90
 393 0034 10B1     		cbz	r0, .L47
  52:Core/Lib/mpu6050.c ****   }
 394              		.loc 1 52 12 view .LVU91
 395 0036 0320     		movs	r0, #3
 396              	.LVL26:
 397              	.L34:
  85:Core/Lib/mpu6050.c **** 
 398              		.loc 1 85 1 view .LVU92
 399 0038 02B0     		add	sp, sp, #8
 400              	.LCFI14:
 401              		.cfi_remember_state
 402              		.cfi_def_cfa_offset 16
 403              		@ sp needed
 404 003a 70BD     		pop	{r4, r5, r6, pc}
 405              	.LVL27:
 406              	.L47:
 407              	.LCFI15:
 408              		.cfi_restore_state
  56:Core/Lib/mpu6050.c ****   if (mpu6050_read_register(mpu, MPU6050_REG_WHO_AM_I, &who_am_i, timeout) != MPU6050_OK)
 409              		.loc 1 56 3 is_stmt 1 view .LVU93
  57:Core/Lib/mpu6050.c ****   {
 410              		.loc 1 57 3 view .LVU94
  57:Core/Lib/mpu6050.c ****   {
ARM GAS  C:\Users\admin\AppData\Local\Temp\cctQ0nNg.s 			page 15


 411              		.loc 1 57 7 is_stmt 0 view .LVU95
 412 003c 3346     		mov	r3, r6
 413 003e 0DF10702 		add	r2, sp, #7
 414 0042 7521     		movs	r1, #117
 415 0044 2046     		mov	r0, r4
 416 0046 FFF7FEFF 		bl	mpu6050_read_register
 417              	.LVL28:
  57:Core/Lib/mpu6050.c ****   {
 418              		.loc 1 57 6 view .LVU96
 419 004a 30BB     		cbnz	r0, .L40
  62:Core/Lib/mpu6050.c ****   {
 420              		.loc 1 62 3 is_stmt 1 view .LVU97
  62:Core/Lib/mpu6050.c ****   {
 421              		.loc 1 62 16 is_stmt 0 view .LVU98
 422 004c 9DF80730 		ldrb	r3, [sp, #7]	@ zero_extendqisi2
  62:Core/Lib/mpu6050.c ****   {
 423              		.loc 1 62 6 view .LVU99
 424 0050 682B     		cmp	r3, #104
 425 0052 01D0     		beq	.L48
  64:Core/Lib/mpu6050.c ****   }
 426              		.loc 1 64 12 view .LVU100
 427 0054 0420     		movs	r0, #4
 428 0056 EFE7     		b	.L34
 429              	.L48:
  68:Core/Lib/mpu6050.c ****   {
 430              		.loc 1 68 3 is_stmt 1 view .LVU101
  68:Core/Lib/mpu6050.c ****   {
 431              		.loc 1 68 7 is_stmt 0 view .LVU102
 432 0058 3346     		mov	r3, r6
 433 005a 0022     		movs	r2, #0
 434 005c 6B21     		movs	r1, #107
 435 005e 2046     		mov	r0, r4
 436 0060 FFF7FEFF 		bl	mpu6050_write_register
 437              	.LVL29:
  68:Core/Lib/mpu6050.c ****   {
 438              		.loc 1 68 6 view .LVU103
 439 0064 08B1     		cbz	r0, .L49
  70:Core/Lib/mpu6050.c ****   }
 440              		.loc 1 70 12 view .LVU104
 441 0066 0220     		movs	r0, #2
 442 0068 E6E7     		b	.L34
 443              	.L49:
  74:Core/Lib/mpu6050.c ****   mpu->wakeup_timestamp = HAL_GetTick();
 444              		.loc 1 74 3 is_stmt 1 view .LVU105
  74:Core/Lib/mpu6050.c ****   mpu->wakeup_timestamp = HAL_GetTick();
 445              		.loc 1 74 19 is_stmt 0 view .LVU106
 446 006a 0123     		movs	r3, #1
 447 006c 84F84830 		strb	r3, [r4, #72]
  75:Core/Lib/mpu6050.c **** 
 448              		.loc 1 75 3 is_stmt 1 view .LVU107
  75:Core/Lib/mpu6050.c **** 
 449              		.loc 1 75 27 is_stmt 0 view .LVU108
 450 0070 FFF7FEFF 		bl	HAL_GetTick
 451              	.LVL30:
  75:Core/Lib/mpu6050.c **** 
 452              		.loc 1 75 25 view .LVU109
 453 0074 E064     		str	r0, [r4, #76]
ARM GAS  C:\Users\admin\AppData\Local\Temp\cctQ0nNg.s 			page 16


  78:Core/Lib/mpu6050.c ****   mpu->pending_config.accel_scale = config->accel_scale;
 454              		.loc 1 78 3 is_stmt 1 view .LVU110
 455 0076 AA79     		ldrb	r2, [r5, #6]	@ zero_extendqisi2
 456 0078 6979     		ldrb	r1, [r5, #5]	@ zero_extendqisi2
 457 007a 2046     		mov	r0, r4
 458 007c FFF7FEFF 		bl	mpu6050_update_sensitivity
 459              	.LVL31:
  79:Core/Lib/mpu6050.c ****   mpu->pending_config.gyro_scale = config->gyro_scale;
 460              		.loc 1 79 3 view .LVU111
  79:Core/Lib/mpu6050.c ****   mpu->pending_config.gyro_scale = config->gyro_scale;
 461              		.loc 1 79 43 is_stmt 0 view .LVU112
 462 0080 6B79     		ldrb	r3, [r5, #5]	@ zero_extendqisi2
  79:Core/Lib/mpu6050.c ****   mpu->pending_config.gyro_scale = config->gyro_scale;
 463              		.loc 1 79 35 view .LVU113
 464 0082 84F85430 		strb	r3, [r4, #84]
  80:Core/Lib/mpu6050.c ****   mpu->pending_config.timeout = timeout;
 465              		.loc 1 80 3 is_stmt 1 view .LVU114
  80:Core/Lib/mpu6050.c ****   mpu->pending_config.timeout = timeout;
 466              		.loc 1 80 42 is_stmt 0 view .LVU115
 467 0086 AB79     		ldrb	r3, [r5, #6]	@ zero_extendqisi2
  80:Core/Lib/mpu6050.c ****   mpu->pending_config.timeout = timeout;
 468              		.loc 1 80 34 view .LVU116
 469 0088 84F85530 		strb	r3, [r4, #85]
  81:Core/Lib/mpu6050.c ****   
 470              		.loc 1 81 3 is_stmt 1 view .LVU117
  81:Core/Lib/mpu6050.c ****   
 471              		.loc 1 81 31 is_stmt 0 view .LVU118
 472 008c A665     		str	r6, [r4, #88]
  83:Core/Lib/mpu6050.c **** 
 473              		.loc 1 83 3 is_stmt 1 view .LVU119
  83:Core/Lib/mpu6050.c **** 
 474              		.loc 1 83 10 is_stmt 0 view .LVU120
 475 008e 0720     		movs	r0, #7
 476 0090 D2E7     		b	.L34
 477              	.LVL32:
 478              	.L36:
 479              	.LCFI16:
 480              		.cfi_def_cfa_offset 0
 481              		.cfi_restore 4
 482              		.cfi_restore 5
 483              		.cfi_restore 6
 484              		.cfi_restore 14
  38:Core/Lib/mpu6050.c ****   }
 485              		.loc 1 38 12 view .LVU121
 486 0092 0620     		movs	r0, #6
 487              	.LVL33:
  85:Core/Lib/mpu6050.c **** 
 488              		.loc 1 85 1 view .LVU122
 489 0094 7047     		bx	lr
 490              	.LVL34:
 491              	.L37:
 492              	.LCFI17:
 493              		.cfi_def_cfa_offset 24
 494              		.cfi_offset 4, -16
 495              		.cfi_offset 5, -12
 496              		.cfi_offset 6, -8
 497              		.cfi_offset 14, -4
ARM GAS  C:\Users\admin\AppData\Local\Temp\cctQ0nNg.s 			page 17


  38:Core/Lib/mpu6050.c ****   }
 498              		.loc 1 38 12 view .LVU123
 499 0096 0620     		movs	r0, #6
 500 0098 CEE7     		b	.L34
 501              	.LVL35:
 502              	.L40:
  59:Core/Lib/mpu6050.c ****   }
 503              		.loc 1 59 12 view .LVU124
 504 009a 0220     		movs	r0, #2
 505 009c CCE7     		b	.L34
 506              		.cfi_endproc
 507              	.LFE147:
 509              		.section	.text.mpu6050_init_process,"ax",%progbits
 510              		.align	1
 511              		.global	mpu6050_init_process
 512              		.syntax unified
 513              		.thumb
 514              		.thumb_func
 516              	mpu6050_init_process:
 517              	.LVL36:
 518              	.LFB148:
  88:Core/Lib/mpu6050.c ****   if (mpu == NULL)
 519              		.loc 1 88 1 is_stmt 1 view -0
 520              		.cfi_startproc
 521              		@ args = 0, pretend = 0, frame = 0
 522              		@ frame_needed = 0, uses_anonymous_args = 0
  89:Core/Lib/mpu6050.c ****   {
 523              		.loc 1 89 3 view .LVU126
  89:Core/Lib/mpu6050.c ****   {
 524              		.loc 1 89 6 is_stmt 0 view .LVU127
 525 0000 48B3     		cbz	r0, .L52
  88:Core/Lib/mpu6050.c ****   if (mpu == NULL)
 526              		.loc 1 88 1 view .LVU128
 527 0002 70B5     		push	{r4, r5, r6, lr}
 528              	.LCFI18:
 529              		.cfi_def_cfa_offset 16
 530              		.cfi_offset 4, -16
 531              		.cfi_offset 5, -12
 532              		.cfi_offset 6, -8
 533              		.cfi_offset 14, -4
 534 0004 0446     		mov	r4, r0
  94:Core/Lib/mpu6050.c ****   {
 535              		.loc 1 94 3 is_stmt 1 view .LVU129
  94:Core/Lib/mpu6050.c ****   {
 536              		.loc 1 94 10 is_stmt 0 view .LVU130
 537 0006 90F84830 		ldrb	r3, [r0, #72]	@ zero_extendqisi2
  94:Core/Lib/mpu6050.c ****   {
 538              		.loc 1 94 6 view .LVU131
 539 000a 33B3     		cbz	r3, .L53
  99:Core/Lib/mpu6050.c ****   {
 540              		.loc 1 99 3 is_stmt 1 view .LVU132
  99:Core/Lib/mpu6050.c ****   {
 541              		.loc 1 99 6 is_stmt 0 view .LVU133
 542 000c 012B     		cmp	r3, #1
 543 000e 01D0     		beq	.L62
 127:Core/Lib/mpu6050.c ****   
 544              		.loc 1 127 10 view .LVU134
ARM GAS  C:\Users\admin\AppData\Local\Temp\cctQ0nNg.s 			page 18


 545 0010 0120     		movs	r0, #1
 546              	.LVL37:
 547              	.L51:
 130:Core/Lib/mpu6050.c **** 
 548              		.loc 1 130 1 view .LVU135
 549 0012 70BD     		pop	{r4, r5, r6, pc}
 550              	.LVL38:
 551              	.L62:
 552              	.LBB2:
 101:Core/Lib/mpu6050.c ****     if (ms < MPU6050_WAKEUP_DELAY_MS)
 553              		.loc 1 101 5 is_stmt 1 view .LVU136
 101:Core/Lib/mpu6050.c ****     if (ms < MPU6050_WAKEUP_DELAY_MS)
 554              		.loc 1 101 19 is_stmt 0 view .LVU137
 555 0014 FFF7FEFF 		bl	HAL_GetTick
 556              	.LVL39:
 101:Core/Lib/mpu6050.c ****     if (ms < MPU6050_WAKEUP_DELAY_MS)
 557              		.loc 1 101 38 view .LVU138
 558 0018 E36C     		ldr	r3, [r4, #76]
 101:Core/Lib/mpu6050.c ****     if (ms < MPU6050_WAKEUP_DELAY_MS)
 559              		.loc 1 101 14 view .LVU139
 560 001a C01A     		subs	r0, r0, r3
 561              	.LVL40:
 102:Core/Lib/mpu6050.c ****     {
 562              		.loc 1 102 5 is_stmt 1 view .LVU140
 102:Core/Lib/mpu6050.c ****     {
 563              		.loc 1 102 8 is_stmt 0 view .LVU141
 564 001c 0928     		cmp	r0, #9
 565 001e 1ED9     		bls	.L55
 107:Core/Lib/mpu6050.c ****     mpu6050_gyro_scale_t gyro_scale = mpu->pending_config.gyro_scale;
 566              		.loc 1 107 5 is_stmt 1 view .LVU142
 107:Core/Lib/mpu6050.c ****     mpu6050_gyro_scale_t gyro_scale = mpu->pending_config.gyro_scale;
 567              		.loc 1 107 27 is_stmt 0 view .LVU143
 568 0020 94F85450 		ldrb	r5, [r4, #84]	@ zero_extendqisi2
 569              	.LVL41:
 108:Core/Lib/mpu6050.c ****     uint32_t timeout = mpu->pending_config.timeout;
 570              		.loc 1 108 5 is_stmt 1 view .LVU144
 108:Core/Lib/mpu6050.c ****     uint32_t timeout = mpu->pending_config.timeout;
 571              		.loc 1 108 26 is_stmt 0 view .LVU145
 572 0024 94F85520 		ldrb	r2, [r4, #85]	@ zero_extendqisi2
 573              	.LVL42:
 109:Core/Lib/mpu6050.c **** 
 574              		.loc 1 109 5 is_stmt 1 view .LVU146
 109:Core/Lib/mpu6050.c **** 
 575              		.loc 1 109 14 is_stmt 0 view .LVU147
 576 0028 A66D     		ldr	r6, [r4, #88]
 577              	.LVL43:
 112:Core/Lib/mpu6050.c ****     {
 578              		.loc 1 112 5 is_stmt 1 view .LVU148
 112:Core/Lib/mpu6050.c ****     {
 579              		.loc 1 112 9 is_stmt 0 view .LVU149
 580 002a D200     		lsls	r2, r2, #3
 581              	.LVL44:
 112:Core/Lib/mpu6050.c ****     {
 582              		.loc 1 112 9 view .LVU150
 583 002c 3346     		mov	r3, r6
 584 002e 02F0F802 		and	r2, r2, #248
 585 0032 1B21     		movs	r1, #27
ARM GAS  C:\Users\admin\AppData\Local\Temp\cctQ0nNg.s 			page 19


 586 0034 2046     		mov	r0, r4
 587              	.LVL45:
 112:Core/Lib/mpu6050.c ****     {
 588              		.loc 1 112 9 view .LVU151
 589 0036 FFF7FEFF 		bl	mpu6050_write_register
 590              	.LVL46:
 112:Core/Lib/mpu6050.c ****     {
 591              		.loc 1 112 8 view .LVU152
 592 003a 90B9     		cbnz	r0, .L56
 117:Core/Lib/mpu6050.c ****     {
 593              		.loc 1 117 5 is_stmt 1 view .LVU153
 117:Core/Lib/mpu6050.c ****     {
 594              		.loc 1 117 9 is_stmt 0 view .LVU154
 595 003c EA00     		lsls	r2, r5, #3
 596 003e 3346     		mov	r3, r6
 597 0040 02F0F802 		and	r2, r2, #248
 598 0044 1C21     		movs	r1, #28
 599 0046 2046     		mov	r0, r4
 600 0048 FFF7FEFF 		bl	mpu6050_write_register
 601              	.LVL47:
 117:Core/Lib/mpu6050.c ****     {
 602              		.loc 1 117 8 view .LVU155
 603 004c 58B9     		cbnz	r0, .L57
 122:Core/Lib/mpu6050.c ****     return MPU6050_OK;
 604              		.loc 1 122 5 is_stmt 1 view .LVU156
 122:Core/Lib/mpu6050.c ****     return MPU6050_OK;
 605              		.loc 1 122 21 is_stmt 0 view .LVU157
 606 004e 0223     		movs	r3, #2
 607 0050 84F84830 		strb	r3, [r4, #72]
 123:Core/Lib/mpu6050.c **** 
 608              		.loc 1 123 5 is_stmt 1 view .LVU158
 123:Core/Lib/mpu6050.c **** 
 609              		.loc 1 123 12 is_stmt 0 view .LVU159
 610 0054 DDE7     		b	.L51
 611              	.LVL48:
 612              	.L52:
 613              	.LCFI19:
 614              		.cfi_def_cfa_offset 0
 615              		.cfi_restore 4
 616              		.cfi_restore 5
 617              		.cfi_restore 6
 618              		.cfi_restore 14
 123:Core/Lib/mpu6050.c **** 
 619              		.loc 1 123 12 view .LVU160
 620              	.LBE2:
  91:Core/Lib/mpu6050.c ****   }
 621              		.loc 1 91 12 view .LVU161
 622 0056 0620     		movs	r0, #6
 623              	.LVL49:
 130:Core/Lib/mpu6050.c **** 
 624              		.loc 1 130 1 view .LVU162
 625 0058 7047     		bx	lr
 626              	.LVL50:
 627              	.L53:
 628              	.LCFI20:
 629              		.cfi_def_cfa_offset 16
 630              		.cfi_offset 4, -16
ARM GAS  C:\Users\admin\AppData\Local\Temp\cctQ0nNg.s 			page 20


 631              		.cfi_offset 5, -12
 632              		.cfi_offset 6, -8
 633              		.cfi_offset 14, -4
  96:Core/Lib/mpu6050.c ****   }
 634              		.loc 1 96 12 view .LVU163
 635 005a 0120     		movs	r0, #1
 636              	.LVL51:
  96:Core/Lib/mpu6050.c ****   }
 637              		.loc 1 96 12 view .LVU164
 638 005c D9E7     		b	.L51
 639              	.LVL52:
 640              	.L55:
 641              	.LBB3:
 104:Core/Lib/mpu6050.c ****     }
 642              		.loc 1 104 14 view .LVU165
 643 005e 0720     		movs	r0, #7
 644              	.LVL53:
 104:Core/Lib/mpu6050.c ****     }
 645              		.loc 1 104 14 view .LVU166
 646 0060 D7E7     		b	.L51
 647              	.LVL54:
 648              	.L56:
 114:Core/Lib/mpu6050.c ****     }
 649              		.loc 1 114 14 view .LVU167
 650 0062 0220     		movs	r0, #2
 651 0064 D5E7     		b	.L51
 652              	.L57:
 119:Core/Lib/mpu6050.c ****     }
 653              		.loc 1 119 14 view .LVU168
 654 0066 0220     		movs	r0, #2
 655 0068 D3E7     		b	.L51
 656              	.LBE3:
 657              		.cfi_endproc
 658              	.LFE148:
 660              		.section	.text.mpu6050_is_ready,"ax",%progbits
 661              		.align	1
 662              		.global	mpu6050_is_ready
 663              		.syntax unified
 664              		.thumb
 665              		.thumb_func
 667              	mpu6050_is_ready:
 668              	.LVL55:
 669              	.LFB149:
 133:Core/Lib/mpu6050.c ****   if (mpu == NULL)
 670              		.loc 1 133 1 is_stmt 1 view -0
 671              		.cfi_startproc
 672              		@ args = 0, pretend = 0, frame = 0
 673              		@ frame_needed = 0, uses_anonymous_args = 0
 674              		@ link register save eliminated.
 134:Core/Lib/mpu6050.c ****   {
 675              		.loc 1 134 3 view .LVU170
 134:Core/Lib/mpu6050.c ****   {
 676              		.loc 1 134 6 is_stmt 0 view .LVU171
 677 0000 30B1     		cbz	r0, .L65
 138:Core/Lib/mpu6050.c ****   
 678              		.loc 1 138 3 is_stmt 1 view .LVU172
 138:Core/Lib/mpu6050.c ****   
ARM GAS  C:\Users\admin\AppData\Local\Temp\cctQ0nNg.s 			page 21


 679              		.loc 1 138 14 is_stmt 0 view .LVU173
 680 0002 90F84800 		ldrb	r0, [r0, #72]	@ zero_extendqisi2
 681              	.LVL56:
 138:Core/Lib/mpu6050.c ****   
 682              		.loc 1 138 60 view .LVU174
 683 0006 0228     		cmp	r0, #2
 684 0008 14BF     		ite	ne
 685 000a 0020     		movne	r0, #0
 686 000c 0120     		moveq	r0, #1
 687 000e 7047     		bx	lr
 688              	.LVL57:
 689              	.L65:
 136:Core/Lib/mpu6050.c ****   }
 690              		.loc 1 136 12 view .LVU175
 691 0010 0020     		movs	r0, #0
 692              	.LVL58:
 140:Core/Lib/mpu6050.c **** 
 693              		.loc 1 140 1 view .LVU176
 694 0012 7047     		bx	lr
 695              		.cfi_endproc
 696              	.LFE149:
 698              		.section	.text.mpu6050_read_all,"ax",%progbits
 699              		.align	1
 700              		.global	mpu6050_read_all
 701              		.syntax unified
 702              		.thumb
 703              		.thumb_func
 705              	mpu6050_read_all:
 706              	.LVL59:
 707              	.LFB150:
 143:Core/Lib/mpu6050.c ****   if (mpu == NULL || mpu->init_state != MPU6050_INIT_STATE_READY)
 708              		.loc 1 143 1 is_stmt 1 view -0
 709              		.cfi_startproc
 710              		@ args = 0, pretend = 0, frame = 16
 711              		@ frame_needed = 0, uses_anonymous_args = 0
 144:Core/Lib/mpu6050.c ****   {
 712              		.loc 1 144 3 view .LVU178
 144:Core/Lib/mpu6050.c ****   {
 713              		.loc 1 144 6 is_stmt 0 view .LVU179
 714 0000 0028     		cmp	r0, #0
 715 0002 00F09780 		beq	.L68
 143:Core/Lib/mpu6050.c ****   if (mpu == NULL || mpu->init_state != MPU6050_INIT_STATE_READY)
 716              		.loc 1 143 1 discriminator 1 view .LVU180
 717 0006 F0B5     		push	{r4, r5, r6, r7, lr}
 718              	.LCFI21:
 719              		.cfi_def_cfa_offset 20
 720              		.cfi_offset 4, -20
 721              		.cfi_offset 5, -16
 722              		.cfi_offset 6, -12
 723              		.cfi_offset 7, -8
 724              		.cfi_offset 14, -4
 725 0008 87B0     		sub	sp, sp, #28
 726              	.LCFI22:
 727              		.cfi_def_cfa_offset 48
 728 000a 0446     		mov	r4, r0
 144:Core/Lib/mpu6050.c ****   {
 729              		.loc 1 144 25 discriminator 1 view .LVU181
ARM GAS  C:\Users\admin\AppData\Local\Temp\cctQ0nNg.s 			page 22


 730 000c 90F84850 		ldrb	r5, [r0, #72]	@ zero_extendqisi2
 144:Core/Lib/mpu6050.c ****   {
 731              		.loc 1 144 19 discriminator 1 view .LVU182
 732 0010 022D     		cmp	r5, #2
 733 0012 02D0     		beq	.L75
 146:Core/Lib/mpu6050.c ****   }
 734              		.loc 1 146 12 view .LVU183
 735 0014 0120     		movs	r0, #1
 736              	.LVL60:
 737              	.L67:
 177:Core/Lib/mpu6050.c **** 
 738              		.loc 1 177 1 view .LVU184
 739 0016 07B0     		add	sp, sp, #28
 740              	.LCFI23:
 741              		.cfi_remember_state
 742              		.cfi_def_cfa_offset 20
 743              		@ sp needed
 744 0018 F0BD     		pop	{r4, r5, r6, r7, pc}
 745              	.LVL61:
 746              	.L75:
 747              	.LCFI24:
 748              		.cfi_restore_state
 148:Core/Lib/mpu6050.c **** 
 749              		.loc 1 148 3 is_stmt 1 view .LVU185
 151:Core/Lib/mpu6050.c ****   {
 750              		.loc 1 151 3 view .LVU186
 151:Core/Lib/mpu6050.c ****   {
 751              		.loc 1 151 7 is_stmt 0 view .LVU187
 752 001a 6423     		movs	r3, #100
 753 001c 0093     		str	r3, [sp]
 754 001e 0E23     		movs	r3, #14
 755 0020 02AA     		add	r2, sp, #8
 756 0022 3B21     		movs	r1, #59
 757 0024 FFF7FEFF 		bl	mpu6050_read_registers
 758              	.LVL62:
 151:Core/Lib/mpu6050.c ****   {
 759              		.loc 1 151 6 view .LVU188
 760 0028 0028     		cmp	r0, #0
 761 002a 40F08580 		bne	.L70
 157:Core/Lib/mpu6050.c ****   mpu->accel_raw.y = (int16_t) (buffer[2] << 8) | buffer[3];
 762              		.loc 1 157 3 is_stmt 1 view .LVU189
 157:Core/Lib/mpu6050.c ****   mpu->accel_raw.y = (int16_t) (buffer[2] << 8) | buffer[3];
 763              		.loc 1 157 39 is_stmt 0 view .LVU190
 764 002e 9DF808C0 		ldrb	ip, [sp, #8]	@ zero_extendqisi2
 157:Core/Lib/mpu6050.c ****   mpu->accel_raw.y = (int16_t) (buffer[2] << 8) | buffer[3];
 765              		.loc 1 157 43 view .LVU191
 766 0032 4FEA0C2C 		lsl	ip, ip, #8
 157:Core/Lib/mpu6050.c ****   mpu->accel_raw.y = (int16_t) (buffer[2] << 8) | buffer[3];
 767              		.loc 1 157 22 view .LVU192
 768 0036 0FFA8CFC 		sxth	ip, ip
 157:Core/Lib/mpu6050.c ****   mpu->accel_raw.y = (int16_t) (buffer[2] << 8) | buffer[3];
 769              		.loc 1 157 57 view .LVU193
 770 003a 9DF80930 		ldrb	r3, [sp, #9]	@ zero_extendqisi2
 157:Core/Lib/mpu6050.c ****   mpu->accel_raw.y = (int16_t) (buffer[2] << 8) | buffer[3];
 771              		.loc 1 157 49 view .LVU194
 772 003e 4CEA030C 		orr	ip, ip, r3
 157:Core/Lib/mpu6050.c ****   mpu->accel_raw.y = (int16_t) (buffer[2] << 8) | buffer[3];
ARM GAS  C:\Users\admin\AppData\Local\Temp\cctQ0nNg.s 			page 23


 773              		.loc 1 157 20 view .LVU195
 774 0042 C4F808C0 		str	ip, [r4, #8]
 158:Core/Lib/mpu6050.c ****   mpu->accel_raw.z = (int16_t) (buffer[4] << 8) | buffer[5];
 775              		.loc 1 158 3 is_stmt 1 view .LVU196
 158:Core/Lib/mpu6050.c ****   mpu->accel_raw.z = (int16_t) (buffer[4] << 8) | buffer[5];
 776              		.loc 1 158 39 is_stmt 0 view .LVU197
 777 0046 9DF80A70 		ldrb	r7, [sp, #10]	@ zero_extendqisi2
 158:Core/Lib/mpu6050.c ****   mpu->accel_raw.z = (int16_t) (buffer[4] << 8) | buffer[5];
 778              		.loc 1 158 43 view .LVU198
 779 004a 3F02     		lsls	r7, r7, #8
 158:Core/Lib/mpu6050.c ****   mpu->accel_raw.z = (int16_t) (buffer[4] << 8) | buffer[5];
 780              		.loc 1 158 22 view .LVU199
 781 004c 3FB2     		sxth	r7, r7
 158:Core/Lib/mpu6050.c ****   mpu->accel_raw.z = (int16_t) (buffer[4] << 8) | buffer[5];
 782              		.loc 1 158 57 view .LVU200
 783 004e 9DF80B30 		ldrb	r3, [sp, #11]	@ zero_extendqisi2
 158:Core/Lib/mpu6050.c ****   mpu->accel_raw.z = (int16_t) (buffer[4] << 8) | buffer[5];
 784              		.loc 1 158 49 view .LVU201
 785 0052 1F43     		orrs	r7, r7, r3
 158:Core/Lib/mpu6050.c ****   mpu->accel_raw.z = (int16_t) (buffer[4] << 8) | buffer[5];
 786              		.loc 1 158 20 view .LVU202
 787 0054 E760     		str	r7, [r4, #12]
 159:Core/Lib/mpu6050.c ****   mpu->temp_raw = (int16_t) (buffer[6] << 8) | buffer[7];
 788              		.loc 1 159 3 is_stmt 1 view .LVU203
 159:Core/Lib/mpu6050.c ****   mpu->temp_raw = (int16_t) (buffer[6] << 8) | buffer[7];
 789              		.loc 1 159 39 is_stmt 0 view .LVU204
 790 0056 9DF80C60 		ldrb	r6, [sp, #12]	@ zero_extendqisi2
 159:Core/Lib/mpu6050.c ****   mpu->temp_raw = (int16_t) (buffer[6] << 8) | buffer[7];
 791              		.loc 1 159 43 view .LVU205
 792 005a 3602     		lsls	r6, r6, #8
 159:Core/Lib/mpu6050.c ****   mpu->temp_raw = (int16_t) (buffer[6] << 8) | buffer[7];
 793              		.loc 1 159 22 view .LVU206
 794 005c 36B2     		sxth	r6, r6
 159:Core/Lib/mpu6050.c ****   mpu->temp_raw = (int16_t) (buffer[6] << 8) | buffer[7];
 795              		.loc 1 159 57 view .LVU207
 796 005e 9DF80D30 		ldrb	r3, [sp, #13]	@ zero_extendqisi2
 159:Core/Lib/mpu6050.c ****   mpu->temp_raw = (int16_t) (buffer[6] << 8) | buffer[7];
 797              		.loc 1 159 49 view .LVU208
 798 0062 1E43     		orrs	r6, r6, r3
 159:Core/Lib/mpu6050.c ****   mpu->temp_raw = (int16_t) (buffer[6] << 8) | buffer[7];
 799              		.loc 1 159 20 view .LVU209
 800 0064 2661     		str	r6, [r4, #16]
 160:Core/Lib/mpu6050.c ****   mpu->gyro_raw.x = (int16_t) (buffer[8] << 8) | buffer[9];
 801              		.loc 1 160 3 is_stmt 1 view .LVU210
 160:Core/Lib/mpu6050.c ****   mpu->gyro_raw.x = (int16_t) (buffer[8] << 8) | buffer[9];
 802              		.loc 1 160 36 is_stmt 0 view .LVU211
 803 0066 9DF80E30 		ldrb	r3, [sp, #14]	@ zero_extendqisi2
 160:Core/Lib/mpu6050.c ****   mpu->gyro_raw.x = (int16_t) (buffer[8] << 8) | buffer[9];
 804              		.loc 1 160 40 view .LVU212
 805 006a 1B02     		lsls	r3, r3, #8
 160:Core/Lib/mpu6050.c ****   mpu->gyro_raw.x = (int16_t) (buffer[8] << 8) | buffer[9];
 806              		.loc 1 160 19 view .LVU213
 807 006c 1BB2     		sxth	r3, r3
 160:Core/Lib/mpu6050.c ****   mpu->gyro_raw.x = (int16_t) (buffer[8] << 8) | buffer[9];
 808              		.loc 1 160 54 view .LVU214
 809 006e 9DF80F20 		ldrb	r2, [sp, #15]	@ zero_extendqisi2
 160:Core/Lib/mpu6050.c ****   mpu->gyro_raw.x = (int16_t) (buffer[8] << 8) | buffer[9];
ARM GAS  C:\Users\admin\AppData\Local\Temp\cctQ0nNg.s 			page 24


 810              		.loc 1 160 46 view .LVU215
 811 0072 1343     		orrs	r3, r3, r2
 160:Core/Lib/mpu6050.c ****   mpu->gyro_raw.x = (int16_t) (buffer[8] << 8) | buffer[9];
 812              		.loc 1 160 17 view .LVU216
 813 0074 2384     		strh	r3, [r4, #32]	@ movhi
 161:Core/Lib/mpu6050.c ****   mpu->gyro_raw.y = (int16_t) (buffer[10] << 8) | buffer[11];
 814              		.loc 1 161 3 is_stmt 1 view .LVU217
 161:Core/Lib/mpu6050.c ****   mpu->gyro_raw.y = (int16_t) (buffer[10] << 8) | buffer[11];
 815              		.loc 1 161 38 is_stmt 0 view .LVU218
 816 0076 9DF81050 		ldrb	r5, [sp, #16]	@ zero_extendqisi2
 161:Core/Lib/mpu6050.c ****   mpu->gyro_raw.y = (int16_t) (buffer[10] << 8) | buffer[11];
 817              		.loc 1 161 42 view .LVU219
 818 007a 2D02     		lsls	r5, r5, #8
 161:Core/Lib/mpu6050.c ****   mpu->gyro_raw.y = (int16_t) (buffer[10] << 8) | buffer[11];
 819              		.loc 1 161 21 view .LVU220
 820 007c 2DB2     		sxth	r5, r5
 161:Core/Lib/mpu6050.c ****   mpu->gyro_raw.y = (int16_t) (buffer[10] << 8) | buffer[11];
 821              		.loc 1 161 56 view .LVU221
 822 007e 9DF81120 		ldrb	r2, [sp, #17]	@ zero_extendqisi2
 161:Core/Lib/mpu6050.c ****   mpu->gyro_raw.y = (int16_t) (buffer[10] << 8) | buffer[11];
 823              		.loc 1 161 48 view .LVU222
 824 0082 1543     		orrs	r5, r5, r2
 161:Core/Lib/mpu6050.c ****   mpu->gyro_raw.y = (int16_t) (buffer[10] << 8) | buffer[11];
 825              		.loc 1 161 19 view .LVU223
 826 0084 6561     		str	r5, [r4, #20]
 162:Core/Lib/mpu6050.c ****   mpu->gyro_raw.z = (int16_t) (buffer[12] << 8) | buffer[13];
 827              		.loc 1 162 3 is_stmt 1 view .LVU224
 162:Core/Lib/mpu6050.c ****   mpu->gyro_raw.z = (int16_t) (buffer[12] << 8) | buffer[13];
 828              		.loc 1 162 38 is_stmt 0 view .LVU225
 829 0086 9DF81210 		ldrb	r1, [sp, #18]	@ zero_extendqisi2
 162:Core/Lib/mpu6050.c ****   mpu->gyro_raw.z = (int16_t) (buffer[12] << 8) | buffer[13];
 830              		.loc 1 162 43 view .LVU226
 831 008a 0902     		lsls	r1, r1, #8
 162:Core/Lib/mpu6050.c ****   mpu->gyro_raw.z = (int16_t) (buffer[12] << 8) | buffer[13];
 832              		.loc 1 162 21 view .LVU227
 833 008c 09B2     		sxth	r1, r1
 162:Core/Lib/mpu6050.c ****   mpu->gyro_raw.z = (int16_t) (buffer[12] << 8) | buffer[13];
 834              		.loc 1 162 57 view .LVU228
 835 008e 9DF81320 		ldrb	r2, [sp, #19]	@ zero_extendqisi2
 162:Core/Lib/mpu6050.c ****   mpu->gyro_raw.z = (int16_t) (buffer[12] << 8) | buffer[13];
 836              		.loc 1 162 49 view .LVU229
 837 0092 1143     		orrs	r1, r1, r2
 162:Core/Lib/mpu6050.c ****   mpu->gyro_raw.z = (int16_t) (buffer[12] << 8) | buffer[13];
 838              		.loc 1 162 19 view .LVU230
 839 0094 A161     		str	r1, [r4, #24]
 163:Core/Lib/mpu6050.c **** 
 840              		.loc 1 163 3 is_stmt 1 view .LVU231
 163:Core/Lib/mpu6050.c **** 
 841              		.loc 1 163 38 is_stmt 0 view .LVU232
 842 0096 9DF81420 		ldrb	r2, [sp, #20]	@ zero_extendqisi2
 163:Core/Lib/mpu6050.c **** 
 843              		.loc 1 163 43 view .LVU233
 844 009a 1202     		lsls	r2, r2, #8
 163:Core/Lib/mpu6050.c **** 
 845              		.loc 1 163 21 view .LVU234
 846 009c 12B2     		sxth	r2, r2
 163:Core/Lib/mpu6050.c **** 
ARM GAS  C:\Users\admin\AppData\Local\Temp\cctQ0nNg.s 			page 25


 847              		.loc 1 163 57 view .LVU235
 848 009e 9DF815E0 		ldrb	lr, [sp, #21]	@ zero_extendqisi2
 163:Core/Lib/mpu6050.c **** 
 849              		.loc 1 163 49 view .LVU236
 850 00a2 42EA0E02 		orr	r2, r2, lr
 163:Core/Lib/mpu6050.c **** 
 851              		.loc 1 163 19 view .LVU237
 852 00a6 E261     		str	r2, [r4, #28]
 166:Core/Lib/mpu6050.c ****   mpu->accel_scaled.y = (float) mpu->accel_raw.y/mpu->accel_sensitivity;
 853              		.loc 1 166 3 is_stmt 1 view .LVU238
 166:Core/Lib/mpu6050.c ****   mpu->accel_scaled.y = (float) mpu->accel_raw.y/mpu->accel_sensitivity;
 854              		.loc 1 166 25 is_stmt 0 view .LVU239
 855 00a8 07EE90CA 		vmov	s15, ip	@ int
 856 00ac F8EEE77A 		vcvt.f32.s32	s15, s15
 166:Core/Lib/mpu6050.c ****   mpu->accel_scaled.y = (float) mpu->accel_raw.y/mpu->accel_sensitivity;
 857              		.loc 1 166 53 view .LVU240
 858 00b0 94ED107A 		vldr.32	s14, [r4, #64]
 166:Core/Lib/mpu6050.c ****   mpu->accel_scaled.y = (float) mpu->accel_raw.y/mpu->accel_sensitivity;
 859              		.loc 1 166 49 view .LVU241
 860 00b4 C7EE876A 		vdiv.f32	s13, s15, s14
 166:Core/Lib/mpu6050.c ****   mpu->accel_scaled.y = (float) mpu->accel_raw.y/mpu->accel_sensitivity;
 861              		.loc 1 166 23 view .LVU242
 862 00b8 C4ED096A 		vstr.32	s13, [r4, #36]
 167:Core/Lib/mpu6050.c ****   mpu->accel_scaled.z = (float) mpu->accel_raw.z/mpu->accel_sensitivity;
 863              		.loc 1 167 3 is_stmt 1 view .LVU243
 167:Core/Lib/mpu6050.c ****   mpu->accel_scaled.z = (float) mpu->accel_raw.z/mpu->accel_sensitivity;
 864              		.loc 1 167 25 is_stmt 0 view .LVU244
 865 00bc 07EE907A 		vmov	s15, r7	@ int
 866 00c0 F8EEE77A 		vcvt.f32.s32	s15, s15
 167:Core/Lib/mpu6050.c ****   mpu->accel_scaled.z = (float) mpu->accel_raw.z/mpu->accel_sensitivity;
 867              		.loc 1 167 49 view .LVU245
 868 00c4 C7EE876A 		vdiv.f32	s13, s15, s14
 167:Core/Lib/mpu6050.c ****   mpu->accel_scaled.z = (float) mpu->accel_raw.z/mpu->accel_sensitivity;
 869              		.loc 1 167 23 view .LVU246
 870 00c8 C4ED0A6A 		vstr.32	s13, [r4, #40]
 168:Core/Lib/mpu6050.c ****    
 871              		.loc 1 168 3 is_stmt 1 view .LVU247
 168:Core/Lib/mpu6050.c ****    
 872              		.loc 1 168 25 is_stmt 0 view .LVU248
 873 00cc 07EE906A 		vmov	s15, r6	@ int
 874 00d0 F8EEE77A 		vcvt.f32.s32	s15, s15
 168:Core/Lib/mpu6050.c ****    
 875              		.loc 1 168 49 view .LVU249
 876 00d4 C7EE876A 		vdiv.f32	s13, s15, s14
 168:Core/Lib/mpu6050.c ****    
 877              		.loc 1 168 23 view .LVU250
 878 00d8 C4ED0B6A 		vstr.32	s13, [r4, #44]
 170:Core/Lib/mpu6050.c ****   mpu->gyro_scaled.y = (float) mpu->gyro_raw.y/mpu->gyro_sensitivity;
 879              		.loc 1 170 3 is_stmt 1 view .LVU251
 170:Core/Lib/mpu6050.c ****   mpu->gyro_scaled.y = (float) mpu->gyro_raw.y/mpu->gyro_sensitivity;
 880              		.loc 1 170 24 is_stmt 0 view .LVU252
 881 00dc 07EE905A 		vmov	s15, r5	@ int
 882 00e0 F8EEE77A 		vcvt.f32.s32	s15, s15
 170:Core/Lib/mpu6050.c ****   mpu->gyro_scaled.y = (float) mpu->gyro_raw.y/mpu->gyro_sensitivity;
 883              		.loc 1 170 51 view .LVU253
 884 00e4 94ED117A 		vldr.32	s14, [r4, #68]
 170:Core/Lib/mpu6050.c ****   mpu->gyro_scaled.y = (float) mpu->gyro_raw.y/mpu->gyro_sensitivity;
ARM GAS  C:\Users\admin\AppData\Local\Temp\cctQ0nNg.s 			page 26


 885              		.loc 1 170 47 view .LVU254
 886 00e8 C7EE876A 		vdiv.f32	s13, s15, s14
 170:Core/Lib/mpu6050.c ****   mpu->gyro_scaled.y = (float) mpu->gyro_raw.y/mpu->gyro_sensitivity;
 887              		.loc 1 170 22 view .LVU255
 888 00ec C4ED0C6A 		vstr.32	s13, [r4, #48]
 171:Core/Lib/mpu6050.c ****   mpu->gyro_scaled.z = (float) mpu->gyro_raw.z/mpu->gyro_sensitivity;
 889              		.loc 1 171 3 is_stmt 1 view .LVU256
 171:Core/Lib/mpu6050.c ****   mpu->gyro_scaled.z = (float) mpu->gyro_raw.z/mpu->gyro_sensitivity;
 890              		.loc 1 171 24 is_stmt 0 view .LVU257
 891 00f0 07EE901A 		vmov	s15, r1	@ int
 892 00f4 F8EEE77A 		vcvt.f32.s32	s15, s15
 171:Core/Lib/mpu6050.c ****   mpu->gyro_scaled.z = (float) mpu->gyro_raw.z/mpu->gyro_sensitivity;
 893              		.loc 1 171 47 view .LVU258
 894 00f8 C7EE876A 		vdiv.f32	s13, s15, s14
 171:Core/Lib/mpu6050.c ****   mpu->gyro_scaled.z = (float) mpu->gyro_raw.z/mpu->gyro_sensitivity;
 895              		.loc 1 171 22 view .LVU259
 896 00fc C4ED0D6A 		vstr.32	s13, [r4, #52]
 172:Core/Lib/mpu6050.c **** 
 897              		.loc 1 172 3 is_stmt 1 view .LVU260
 172:Core/Lib/mpu6050.c **** 
 898              		.loc 1 172 24 is_stmt 0 view .LVU261
 899 0100 07EE902A 		vmov	s15, r2	@ int
 900 0104 F8EEE77A 		vcvt.f32.s32	s15, s15
 172:Core/Lib/mpu6050.c **** 
 901              		.loc 1 172 47 view .LVU262
 902 0108 C7EE876A 		vdiv.f32	s13, s15, s14
 172:Core/Lib/mpu6050.c **** 
 903              		.loc 1 172 22 view .LVU263
 904 010c C4ED0E6A 		vstr.32	s13, [r4, #56]
 174:Core/Lib/mpu6050.c ****   return MPU6050_OK;
 905              		.loc 1 174 3 is_stmt 1 view .LVU264
 174:Core/Lib/mpu6050.c ****   return MPU6050_OK;
 906              		.loc 1 174 22 is_stmt 0 view .LVU265
 907 0110 0A4A     		ldr	r2, .L76
 908 0112 82FB0312 		smull	r1, r2, r2, r3
 909 0116 DB17     		asrs	r3, r3, #31
 910 0118 C3EBE213 		rsb	r3, r3, r2, asr #7
 911 011c 1BB2     		sxth	r3, r3
 912 011e 07EE903A 		vmov	s15, r3	@ int
 913 0122 F8EEE77A 		vcvt.f32.s32	s15, s15
 174:Core/Lib/mpu6050.c ****   return MPU6050_OK;
 914              		.loc 1 174 52 view .LVU266
 915 0126 9FED067A 		vldr.32	s14, .L76+4
 916 012a 77EE877A 		vadd.f32	s15, s15, s14
 174:Core/Lib/mpu6050.c ****   return MPU6050_OK;
 917              		.loc 1 174 20 view .LVU267
 918 012e C4ED0F7A 		vstr.32	s15, [r4, #60]
 175:Core/Lib/mpu6050.c ****   
 919              		.loc 1 175 3 is_stmt 1 view .LVU268
 175:Core/Lib/mpu6050.c ****   
 920              		.loc 1 175 10 is_stmt 0 view .LVU269
 921 0132 70E7     		b	.L67
 922              	.LVL63:
 923              	.L68:
 924              	.LCFI25:
 925              		.cfi_def_cfa_offset 0
 926              		.cfi_restore 4
ARM GAS  C:\Users\admin\AppData\Local\Temp\cctQ0nNg.s 			page 27


 927              		.cfi_restore 5
 928              		.cfi_restore 6
 929              		.cfi_restore 7
 930              		.cfi_restore 14
 146:Core/Lib/mpu6050.c ****   }
 931              		.loc 1 146 12 view .LVU270
 932 0134 0120     		movs	r0, #1
 933              	.LVL64:
 177:Core/Lib/mpu6050.c **** 
 934              		.loc 1 177 1 view .LVU271
 935 0136 7047     		bx	lr
 936              	.LVL65:
 937              	.L70:
 938              	.LCFI26:
 939              		.cfi_def_cfa_offset 48
 940              		.cfi_offset 4, -20
 941              		.cfi_offset 5, -16
 942              		.cfi_offset 6, -12
 943              		.cfi_offset 7, -8
 944              		.cfi_offset 14, -4
 153:Core/Lib/mpu6050.c ****   }
 945              		.loc 1 153 12 view .LVU272
 946 0138 2846     		mov	r0, r5
 947 013a 6CE7     		b	.L67
 948              	.L77:
 949              		.align	2
 950              	.L76:
 951 013c 61606060 		.word	1616928865
 952 0140 B81E1242 		.word	1108483768
 953              		.cfi_endproc
 954              	.LFE150:
 956              		.section	.text.mpu6050_read_accel,"ax",%progbits
 957              		.align	1
 958              		.global	mpu6050_read_accel
 959              		.syntax unified
 960              		.thumb
 961              		.thumb_func
 963              	mpu6050_read_accel:
 964              	.LVL66:
 965              	.LFB151:
 180:Core/Lib/mpu6050.c ****   if (mpu == NULL || mpu->init_state != MPU6050_INIT_STATE_READY)
 966              		.loc 1 180 1 is_stmt 1 view -0
 967              		.cfi_startproc
 968              		@ args = 0, pretend = 0, frame = 8
 969              		@ frame_needed = 0, uses_anonymous_args = 0
 181:Core/Lib/mpu6050.c ****   {
 970              		.loc 1 181 3 view .LVU274
 181:Core/Lib/mpu6050.c ****   {
 971              		.loc 1 181 6 is_stmt 0 view .LVU275
 972 0000 0028     		cmp	r0, #0
 973 0002 44D0     		beq	.L80
 180:Core/Lib/mpu6050.c ****   if (mpu == NULL || mpu->init_state != MPU6050_INIT_STATE_READY)
 974              		.loc 1 180 1 discriminator 1 view .LVU276
 975 0004 30B5     		push	{r4, r5, lr}
 976              	.LCFI27:
 977              		.cfi_def_cfa_offset 12
 978              		.cfi_offset 4, -12
ARM GAS  C:\Users\admin\AppData\Local\Temp\cctQ0nNg.s 			page 28


 979              		.cfi_offset 5, -8
 980              		.cfi_offset 14, -4
 981 0006 85B0     		sub	sp, sp, #20
 982              	.LCFI28:
 983              		.cfi_def_cfa_offset 32
 984 0008 0446     		mov	r4, r0
 181:Core/Lib/mpu6050.c ****   {
 985              		.loc 1 181 25 discriminator 1 view .LVU277
 986 000a 90F84850 		ldrb	r5, [r0, #72]	@ zero_extendqisi2
 181:Core/Lib/mpu6050.c ****   {
 987              		.loc 1 181 19 discriminator 1 view .LVU278
 988 000e 022D     		cmp	r5, #2
 989 0010 02D0     		beq	.L87
 183:Core/Lib/mpu6050.c ****   }
 990              		.loc 1 183 12 view .LVU279
 991 0012 0120     		movs	r0, #1
 992              	.LVL67:
 993              	.L79:
 201:Core/Lib/mpu6050.c **** 
 994              		.loc 1 201 1 view .LVU280
 995 0014 05B0     		add	sp, sp, #20
 996              	.LCFI29:
 997              		.cfi_remember_state
 998              		.cfi_def_cfa_offset 12
 999              		@ sp needed
 1000 0016 30BD     		pop	{r4, r5, pc}
 1001              	.LVL68:
 1002              	.L87:
 1003              	.LCFI30:
 1004              		.cfi_restore_state
 185:Core/Lib/mpu6050.c ****   if (mpu6050_read_registers(mpu, MPU6050_REG_ACCEL_XOUT_H, buffer, 6, s_default_timeout) != MPU605
 1005              		.loc 1 185 3 is_stmt 1 view .LVU281
 186:Core/Lib/mpu6050.c ****   {
 1006              		.loc 1 186 3 view .LVU282
 186:Core/Lib/mpu6050.c ****   {
 1007              		.loc 1 186 7 is_stmt 0 view .LVU283
 1008 0018 6423     		movs	r3, #100
 1009 001a 0093     		str	r3, [sp]
 1010 001c 0623     		movs	r3, #6
 1011 001e 02AA     		add	r2, sp, #8
 1012 0020 3B21     		movs	r1, #59
 1013 0022 FFF7FEFF 		bl	mpu6050_read_registers
 1014              	.LVL69:
 186:Core/Lib/mpu6050.c ****   {
 1015              		.loc 1 186 6 view .LVU284
 1016 0026 A0BB     		cbnz	r0, .L82
 190:Core/Lib/mpu6050.c ****   mpu->accel_raw.y = (int16_t) (buffer[2] << 8) | buffer[3];
 1017              		.loc 1 190 3 is_stmt 1 view .LVU285
 190:Core/Lib/mpu6050.c ****   mpu->accel_raw.y = (int16_t) (buffer[2] << 8) | buffer[3];
 1018              		.loc 1 190 39 is_stmt 0 view .LVU286
 1019 0028 9DF80810 		ldrb	r1, [sp, #8]	@ zero_extendqisi2
 190:Core/Lib/mpu6050.c ****   mpu->accel_raw.y = (int16_t) (buffer[2] << 8) | buffer[3];
 1020              		.loc 1 190 43 view .LVU287
 1021 002c 0902     		lsls	r1, r1, #8
 190:Core/Lib/mpu6050.c ****   mpu->accel_raw.y = (int16_t) (buffer[2] << 8) | buffer[3];
 1022              		.loc 1 190 22 view .LVU288
 1023 002e 09B2     		sxth	r1, r1
ARM GAS  C:\Users\admin\AppData\Local\Temp\cctQ0nNg.s 			page 29


 190:Core/Lib/mpu6050.c ****   mpu->accel_raw.y = (int16_t) (buffer[2] << 8) | buffer[3];
 1024              		.loc 1 190 57 view .LVU289
 1025 0030 9DF80930 		ldrb	r3, [sp, #9]	@ zero_extendqisi2
 190:Core/Lib/mpu6050.c ****   mpu->accel_raw.y = (int16_t) (buffer[2] << 8) | buffer[3];
 1026              		.loc 1 190 49 view .LVU290
 1027 0034 1943     		orrs	r1, r1, r3
 190:Core/Lib/mpu6050.c ****   mpu->accel_raw.y = (int16_t) (buffer[2] << 8) | buffer[3];
 1028              		.loc 1 190 20 view .LVU291
 1029 0036 A160     		str	r1, [r4, #8]
 191:Core/Lib/mpu6050.c ****   mpu->accel_raw.z = (int16_t) (buffer[4] << 8) | buffer[5];
 1030              		.loc 1 191 3 is_stmt 1 view .LVU292
 191:Core/Lib/mpu6050.c ****   mpu->accel_raw.z = (int16_t) (buffer[4] << 8) | buffer[5];
 1031              		.loc 1 191 39 is_stmt 0 view .LVU293
 1032 0038 9DF80A20 		ldrb	r2, [sp, #10]	@ zero_extendqisi2
 191:Core/Lib/mpu6050.c ****   mpu->accel_raw.z = (int16_t) (buffer[4] << 8) | buffer[5];
 1033              		.loc 1 191 43 view .LVU294
 1034 003c 1202     		lsls	r2, r2, #8
 191:Core/Lib/mpu6050.c ****   mpu->accel_raw.z = (int16_t) (buffer[4] << 8) | buffer[5];
 1035              		.loc 1 191 22 view .LVU295
 1036 003e 12B2     		sxth	r2, r2
 191:Core/Lib/mpu6050.c ****   mpu->accel_raw.z = (int16_t) (buffer[4] << 8) | buffer[5];
 1037              		.loc 1 191 57 view .LVU296
 1038 0040 9DF80B30 		ldrb	r3, [sp, #11]	@ zero_extendqisi2
 191:Core/Lib/mpu6050.c ****   mpu->accel_raw.z = (int16_t) (buffer[4] << 8) | buffer[5];
 1039              		.loc 1 191 49 view .LVU297
 1040 0044 1A43     		orrs	r2, r2, r3
 191:Core/Lib/mpu6050.c ****   mpu->accel_raw.z = (int16_t) (buffer[4] << 8) | buffer[5];
 1041              		.loc 1 191 20 view .LVU298
 1042 0046 E260     		str	r2, [r4, #12]
 192:Core/Lib/mpu6050.c ****   //convert to physical unit
 1043              		.loc 1 192 3 is_stmt 1 view .LVU299
 192:Core/Lib/mpu6050.c ****   //convert to physical unit
 1044              		.loc 1 192 39 is_stmt 0 view .LVU300
 1045 0048 9DF80C30 		ldrb	r3, [sp, #12]	@ zero_extendqisi2
 192:Core/Lib/mpu6050.c ****   //convert to physical unit
 1046              		.loc 1 192 43 view .LVU301
 1047 004c 1B02     		lsls	r3, r3, #8
 192:Core/Lib/mpu6050.c ****   //convert to physical unit
 1048              		.loc 1 192 22 view .LVU302
 1049 004e 1BB2     		sxth	r3, r3
 192:Core/Lib/mpu6050.c ****   //convert to physical unit
 1050              		.loc 1 192 57 view .LVU303
 1051 0050 9DF80D50 		ldrb	r5, [sp, #13]	@ zero_extendqisi2
 192:Core/Lib/mpu6050.c ****   //convert to physical unit
 1052              		.loc 1 192 49 view .LVU304
 1053 0054 2B43     		orrs	r3, r3, r5
 192:Core/Lib/mpu6050.c ****   //convert to physical unit
 1054              		.loc 1 192 20 view .LVU305
 1055 0056 2361     		str	r3, [r4, #16]
 194:Core/Lib/mpu6050.c ****   mpu->accel_scaled.y = (float) mpu->accel_raw.y/mpu->accel_sensitivity;
 1056              		.loc 1 194 3 is_stmt 1 view .LVU306
 194:Core/Lib/mpu6050.c ****   mpu->accel_scaled.y = (float) mpu->accel_raw.y/mpu->accel_sensitivity;
 1057              		.loc 1 194 25 is_stmt 0 view .LVU307
 1058 0058 07EE901A 		vmov	s15, r1	@ int
 1059 005c F8EEE77A 		vcvt.f32.s32	s15, s15
 194:Core/Lib/mpu6050.c ****   mpu->accel_scaled.y = (float) mpu->accel_raw.y/mpu->accel_sensitivity;
 1060              		.loc 1 194 53 view .LVU308
ARM GAS  C:\Users\admin\AppData\Local\Temp\cctQ0nNg.s 			page 30


 1061 0060 94ED107A 		vldr.32	s14, [r4, #64]
 194:Core/Lib/mpu6050.c ****   mpu->accel_scaled.y = (float) mpu->accel_raw.y/mpu->accel_sensitivity;
 1062              		.loc 1 194 49 view .LVU309
 1063 0064 C7EE876A 		vdiv.f32	s13, s15, s14
 194:Core/Lib/mpu6050.c ****   mpu->accel_scaled.y = (float) mpu->accel_raw.y/mpu->accel_sensitivity;
 1064              		.loc 1 194 23 view .LVU310
 1065 0068 C4ED096A 		vstr.32	s13, [r4, #36]
 195:Core/Lib/mpu6050.c ****   mpu->accel_scaled.z = (float) mpu->accel_raw.z/mpu->accel_sensitivity;
 1066              		.loc 1 195 3 is_stmt 1 view .LVU311
 195:Core/Lib/mpu6050.c ****   mpu->accel_scaled.z = (float) mpu->accel_raw.z/mpu->accel_sensitivity;
 1067              		.loc 1 195 25 is_stmt 0 view .LVU312
 1068 006c 07EE902A 		vmov	s15, r2	@ int
 1069 0070 F8EEE77A 		vcvt.f32.s32	s15, s15
 195:Core/Lib/mpu6050.c ****   mpu->accel_scaled.z = (float) mpu->accel_raw.z/mpu->accel_sensitivity;
 1070              		.loc 1 195 49 view .LVU313
 1071 0074 C7EE876A 		vdiv.f32	s13, s15, s14
 195:Core/Lib/mpu6050.c ****   mpu->accel_scaled.z = (float) mpu->accel_raw.z/mpu->accel_sensitivity;
 1072              		.loc 1 195 23 view .LVU314
 1073 0078 C4ED0A6A 		vstr.32	s13, [r4, #40]
 196:Core/Lib/mpu6050.c ****   
 1074              		.loc 1 196 3 is_stmt 1 view .LVU315
 196:Core/Lib/mpu6050.c ****   
 1075              		.loc 1 196 25 is_stmt 0 view .LVU316
 1076 007c 07EE903A 		vmov	s15, r3	@ int
 1077 0080 F8EEE77A 		vcvt.f32.s32	s15, s15
 196:Core/Lib/mpu6050.c ****   
 1078              		.loc 1 196 49 view .LVU317
 1079 0084 C7EE876A 		vdiv.f32	s13, s15, s14
 196:Core/Lib/mpu6050.c ****   
 1080              		.loc 1 196 23 view .LVU318
 1081 0088 C4ED0B6A 		vstr.32	s13, [r4, #44]
 198:Core/Lib/mpu6050.c ****   
 1082              		.loc 1 198 3 is_stmt 1 view .LVU319
 198:Core/Lib/mpu6050.c ****   
 1083              		.loc 1 198 10 is_stmt 0 view .LVU320
 1084 008c C2E7     		b	.L79
 1085              	.LVL70:
 1086              	.L80:
 1087              	.LCFI31:
 1088              		.cfi_def_cfa_offset 0
 1089              		.cfi_restore 4
 1090              		.cfi_restore 5
 1091              		.cfi_restore 14
 183:Core/Lib/mpu6050.c ****   }
 1092              		.loc 1 183 12 view .LVU321
 1093 008e 0120     		movs	r0, #1
 1094              	.LVL71:
 201:Core/Lib/mpu6050.c **** 
 1095              		.loc 1 201 1 view .LVU322
 1096 0090 7047     		bx	lr
 1097              	.LVL72:
 1098              	.L82:
 1099              	.LCFI32:
 1100              		.cfi_def_cfa_offset 32
 1101              		.cfi_offset 4, -12
 1102              		.cfi_offset 5, -8
 1103              		.cfi_offset 14, -4
ARM GAS  C:\Users\admin\AppData\Local\Temp\cctQ0nNg.s 			page 31


 188:Core/Lib/mpu6050.c ****   }
 1104              		.loc 1 188 12 view .LVU323
 1105 0092 2846     		mov	r0, r5
 1106 0094 BEE7     		b	.L79
 1107              		.cfi_endproc
 1108              	.LFE151:
 1110              		.section	.text.mpu6050_read_gyro,"ax",%progbits
 1111              		.align	1
 1112              		.global	mpu6050_read_gyro
 1113              		.syntax unified
 1114              		.thumb
 1115              		.thumb_func
 1117              	mpu6050_read_gyro:
 1118              	.LVL73:
 1119              	.LFB152:
 204:Core/Lib/mpu6050.c ****   if (mpu == NULL || mpu->init_state != MPU6050_INIT_STATE_READY)
 1120              		.loc 1 204 1 is_stmt 1 view -0
 1121              		.cfi_startproc
 1122              		@ args = 0, pretend = 0, frame = 8
 1123              		@ frame_needed = 0, uses_anonymous_args = 0
 205:Core/Lib/mpu6050.c ****   {
 1124              		.loc 1 205 3 view .LVU325
 205:Core/Lib/mpu6050.c ****   {
 1125              		.loc 1 205 6 is_stmt 0 view .LVU326
 1126 0000 0028     		cmp	r0, #0
 1127 0002 44D0     		beq	.L90
 204:Core/Lib/mpu6050.c ****   if (mpu == NULL || mpu->init_state != MPU6050_INIT_STATE_READY)
 1128              		.loc 1 204 1 discriminator 1 view .LVU327
 1129 0004 30B5     		push	{r4, r5, lr}
 1130              	.LCFI33:
 1131              		.cfi_def_cfa_offset 12
 1132              		.cfi_offset 4, -12
 1133              		.cfi_offset 5, -8
 1134              		.cfi_offset 14, -4
 1135 0006 85B0     		sub	sp, sp, #20
 1136              	.LCFI34:
 1137              		.cfi_def_cfa_offset 32
 1138 0008 0446     		mov	r4, r0
 205:Core/Lib/mpu6050.c ****   {
 1139              		.loc 1 205 25 discriminator 1 view .LVU328
 1140 000a 90F84850 		ldrb	r5, [r0, #72]	@ zero_extendqisi2
 205:Core/Lib/mpu6050.c ****   {
 1141              		.loc 1 205 19 discriminator 1 view .LVU329
 1142 000e 022D     		cmp	r5, #2
 1143 0010 02D0     		beq	.L97
 207:Core/Lib/mpu6050.c ****   }
 1144              		.loc 1 207 12 view .LVU330
 1145 0012 0120     		movs	r0, #1
 1146              	.LVL74:
 1147              	.L89:
 223:Core/Lib/mpu6050.c **** 
 1148              		.loc 1 223 1 view .LVU331
 1149 0014 05B0     		add	sp, sp, #20
 1150              	.LCFI35:
 1151              		.cfi_remember_state
 1152              		.cfi_def_cfa_offset 12
 1153              		@ sp needed
ARM GAS  C:\Users\admin\AppData\Local\Temp\cctQ0nNg.s 			page 32


 1154 0016 30BD     		pop	{r4, r5, pc}
 1155              	.LVL75:
 1156              	.L97:
 1157              	.LCFI36:
 1158              		.cfi_restore_state
 209:Core/Lib/mpu6050.c ****   if (mpu6050_read_registers(mpu, MPU6050_REG_GYRO_XOUT_H, buffer, 6, s_default_timeout) != MPU6050
 1159              		.loc 1 209 3 is_stmt 1 view .LVU332
 210:Core/Lib/mpu6050.c ****   {
 1160              		.loc 1 210 3 view .LVU333
 210:Core/Lib/mpu6050.c ****   {
 1161              		.loc 1 210 7 is_stmt 0 view .LVU334
 1162 0018 6423     		movs	r3, #100
 1163 001a 0093     		str	r3, [sp]
 1164 001c 0623     		movs	r3, #6
 1165 001e 02AA     		add	r2, sp, #8
 1166 0020 4321     		movs	r1, #67
 1167 0022 FFF7FEFF 		bl	mpu6050_read_registers
 1168              	.LVL76:
 210:Core/Lib/mpu6050.c ****   {
 1169              		.loc 1 210 6 view .LVU335
 1170 0026 A0BB     		cbnz	r0, .L92
 214:Core/Lib/mpu6050.c ****   mpu->gyro_raw.y = (int16_t) (buffer[2] << 8) | buffer[3];
 1171              		.loc 1 214 3 is_stmt 1 view .LVU336
 214:Core/Lib/mpu6050.c ****   mpu->gyro_raw.y = (int16_t) (buffer[2] << 8) | buffer[3];
 1172              		.loc 1 214 38 is_stmt 0 view .LVU337
 1173 0028 9DF80810 		ldrb	r1, [sp, #8]	@ zero_extendqisi2
 214:Core/Lib/mpu6050.c ****   mpu->gyro_raw.y = (int16_t) (buffer[2] << 8) | buffer[3];
 1174              		.loc 1 214 42 view .LVU338
 1175 002c 0902     		lsls	r1, r1, #8
 214:Core/Lib/mpu6050.c ****   mpu->gyro_raw.y = (int16_t) (buffer[2] << 8) | buffer[3];
 1176              		.loc 1 214 21 view .LVU339
 1177 002e 09B2     		sxth	r1, r1
 214:Core/Lib/mpu6050.c ****   mpu->gyro_raw.y = (int16_t) (buffer[2] << 8) | buffer[3];
 1178              		.loc 1 214 56 view .LVU340
 1179 0030 9DF80930 		ldrb	r3, [sp, #9]	@ zero_extendqisi2
 214:Core/Lib/mpu6050.c ****   mpu->gyro_raw.y = (int16_t) (buffer[2] << 8) | buffer[3];
 1180              		.loc 1 214 48 view .LVU341
 1181 0034 1943     		orrs	r1, r1, r3
 214:Core/Lib/mpu6050.c ****   mpu->gyro_raw.y = (int16_t) (buffer[2] << 8) | buffer[3];
 1182              		.loc 1 214 19 view .LVU342
 1183 0036 6161     		str	r1, [r4, #20]
 215:Core/Lib/mpu6050.c ****   mpu->gyro_raw.z = (int16_t) (buffer[4] << 8) | buffer[5];
 1184              		.loc 1 215 3 is_stmt 1 view .LVU343
 215:Core/Lib/mpu6050.c ****   mpu->gyro_raw.z = (int16_t) (buffer[4] << 8) | buffer[5];
 1185              		.loc 1 215 38 is_stmt 0 view .LVU344
 1186 0038 9DF80A20 		ldrb	r2, [sp, #10]	@ zero_extendqisi2
 215:Core/Lib/mpu6050.c ****   mpu->gyro_raw.z = (int16_t) (buffer[4] << 8) | buffer[5];
 1187              		.loc 1 215 42 view .LVU345
 1188 003c 1202     		lsls	r2, r2, #8
 215:Core/Lib/mpu6050.c ****   mpu->gyro_raw.z = (int16_t) (buffer[4] << 8) | buffer[5];
 1189              		.loc 1 215 21 view .LVU346
 1190 003e 12B2     		sxth	r2, r2
 215:Core/Lib/mpu6050.c ****   mpu->gyro_raw.z = (int16_t) (buffer[4] << 8) | buffer[5];
 1191              		.loc 1 215 56 view .LVU347
 1192 0040 9DF80B30 		ldrb	r3, [sp, #11]	@ zero_extendqisi2
 215:Core/Lib/mpu6050.c ****   mpu->gyro_raw.z = (int16_t) (buffer[4] << 8) | buffer[5];
 1193              		.loc 1 215 48 view .LVU348
ARM GAS  C:\Users\admin\AppData\Local\Temp\cctQ0nNg.s 			page 33


 1194 0044 1A43     		orrs	r2, r2, r3
 215:Core/Lib/mpu6050.c ****   mpu->gyro_raw.z = (int16_t) (buffer[4] << 8) | buffer[5];
 1195              		.loc 1 215 19 view .LVU349
 1196 0046 A261     		str	r2, [r4, #24]
 216:Core/Lib/mpu6050.c ****   //convert to physical unit
 1197              		.loc 1 216 3 is_stmt 1 view .LVU350
 216:Core/Lib/mpu6050.c ****   //convert to physical unit
 1198              		.loc 1 216 38 is_stmt 0 view .LVU351
 1199 0048 9DF80C30 		ldrb	r3, [sp, #12]	@ zero_extendqisi2
 216:Core/Lib/mpu6050.c ****   //convert to physical unit
 1200              		.loc 1 216 42 view .LVU352
 1201 004c 1B02     		lsls	r3, r3, #8
 216:Core/Lib/mpu6050.c ****   //convert to physical unit
 1202              		.loc 1 216 21 view .LVU353
 1203 004e 1BB2     		sxth	r3, r3
 216:Core/Lib/mpu6050.c ****   //convert to physical unit
 1204              		.loc 1 216 56 view .LVU354
 1205 0050 9DF80D50 		ldrb	r5, [sp, #13]	@ zero_extendqisi2
 216:Core/Lib/mpu6050.c ****   //convert to physical unit
 1206              		.loc 1 216 48 view .LVU355
 1207 0054 2B43     		orrs	r3, r3, r5
 216:Core/Lib/mpu6050.c ****   //convert to physical unit
 1208              		.loc 1 216 19 view .LVU356
 1209 0056 E361     		str	r3, [r4, #28]
 218:Core/Lib/mpu6050.c ****   mpu->gyro_scaled.y = (float) mpu->gyro_raw.y/mpu->gyro_sensitivity;
 1210              		.loc 1 218 3 is_stmt 1 view .LVU357
 218:Core/Lib/mpu6050.c ****   mpu->gyro_scaled.y = (float) mpu->gyro_raw.y/mpu->gyro_sensitivity;
 1211              		.loc 1 218 24 is_stmt 0 view .LVU358
 1212 0058 07EE901A 		vmov	s15, r1	@ int
 1213 005c F8EEE77A 		vcvt.f32.s32	s15, s15
 218:Core/Lib/mpu6050.c ****   mpu->gyro_scaled.y = (float) mpu->gyro_raw.y/mpu->gyro_sensitivity;
 1214              		.loc 1 218 51 view .LVU359
 1215 0060 94ED117A 		vldr.32	s14, [r4, #68]
 218:Core/Lib/mpu6050.c ****   mpu->gyro_scaled.y = (float) mpu->gyro_raw.y/mpu->gyro_sensitivity;
 1216              		.loc 1 218 47 view .LVU360
 1217 0064 C7EE876A 		vdiv.f32	s13, s15, s14
 218:Core/Lib/mpu6050.c ****   mpu->gyro_scaled.y = (float) mpu->gyro_raw.y/mpu->gyro_sensitivity;
 1218              		.loc 1 218 22 view .LVU361
 1219 0068 C4ED0C6A 		vstr.32	s13, [r4, #48]
 219:Core/Lib/mpu6050.c ****   mpu->gyro_scaled.z = (float) mpu->gyro_raw.z/mpu->gyro_sensitivity;
 1220              		.loc 1 219 3 is_stmt 1 view .LVU362
 219:Core/Lib/mpu6050.c ****   mpu->gyro_scaled.z = (float) mpu->gyro_raw.z/mpu->gyro_sensitivity;
 1221              		.loc 1 219 24 is_stmt 0 view .LVU363
 1222 006c 07EE902A 		vmov	s15, r2	@ int
 1223 0070 F8EEE77A 		vcvt.f32.s32	s15, s15
 219:Core/Lib/mpu6050.c ****   mpu->gyro_scaled.z = (float) mpu->gyro_raw.z/mpu->gyro_sensitivity;
 1224              		.loc 1 219 47 view .LVU364
 1225 0074 C7EE876A 		vdiv.f32	s13, s15, s14
 219:Core/Lib/mpu6050.c ****   mpu->gyro_scaled.z = (float) mpu->gyro_raw.z/mpu->gyro_sensitivity;
 1226              		.loc 1 219 22 view .LVU365
 1227 0078 C4ED0D6A 		vstr.32	s13, [r4, #52]
 220:Core/Lib/mpu6050.c ****   
 1228              		.loc 1 220 3 is_stmt 1 view .LVU366
 220:Core/Lib/mpu6050.c ****   
 1229              		.loc 1 220 24 is_stmt 0 view .LVU367
 1230 007c 07EE903A 		vmov	s15, r3	@ int
 1231 0080 F8EEE77A 		vcvt.f32.s32	s15, s15
ARM GAS  C:\Users\admin\AppData\Local\Temp\cctQ0nNg.s 			page 34


 220:Core/Lib/mpu6050.c ****   
 1232              		.loc 1 220 47 view .LVU368
 1233 0084 C7EE876A 		vdiv.f32	s13, s15, s14
 220:Core/Lib/mpu6050.c ****   
 1234              		.loc 1 220 22 view .LVU369
 1235 0088 C4ED0E6A 		vstr.32	s13, [r4, #56]
 222:Core/Lib/mpu6050.c **** }
 1236              		.loc 1 222 3 is_stmt 1 view .LVU370
 222:Core/Lib/mpu6050.c **** }
 1237              		.loc 1 222 10 is_stmt 0 view .LVU371
 1238 008c C2E7     		b	.L89
 1239              	.LVL77:
 1240              	.L90:
 1241              	.LCFI37:
 1242              		.cfi_def_cfa_offset 0
 1243              		.cfi_restore 4
 1244              		.cfi_restore 5
 1245              		.cfi_restore 14
 207:Core/Lib/mpu6050.c ****   }
 1246              		.loc 1 207 12 view .LVU372
 1247 008e 0120     		movs	r0, #1
 1248              	.LVL78:
 223:Core/Lib/mpu6050.c **** 
 1249              		.loc 1 223 1 view .LVU373
 1250 0090 7047     		bx	lr
 1251              	.LVL79:
 1252              	.L92:
 1253              	.LCFI38:
 1254              		.cfi_def_cfa_offset 32
 1255              		.cfi_offset 4, -12
 1256              		.cfi_offset 5, -8
 1257              		.cfi_offset 14, -4
 212:Core/Lib/mpu6050.c ****   }
 1258              		.loc 1 212 12 view .LVU374
 1259 0092 2846     		mov	r0, r5
 1260 0094 BEE7     		b	.L89
 1261              		.cfi_endproc
 1262              	.LFE152:
 1264              		.section	.text.mpu6050_read_temp,"ax",%progbits
 1265              		.align	1
 1266              		.global	mpu6050_read_temp
 1267              		.syntax unified
 1268              		.thumb
 1269              		.thumb_func
 1271              	mpu6050_read_temp:
 1272              	.LVL80:
 1273              	.LFB153:
 226:Core/Lib/mpu6050.c ****   if (mpu == NULL || mpu->init_state != MPU6050_INIT_STATE_READY)
 1274              		.loc 1 226 1 is_stmt 1 view -0
 1275              		.cfi_startproc
 1276              		@ args = 0, pretend = 0, frame = 8
 1277              		@ frame_needed = 0, uses_anonymous_args = 0
 227:Core/Lib/mpu6050.c ****   {
 1278              		.loc 1 227 3 view .LVU376
 227:Core/Lib/mpu6050.c ****   {
 1279              		.loc 1 227 6 is_stmt 0 view .LVU377
 1280 0000 58B3     		cbz	r0, .L100
ARM GAS  C:\Users\admin\AppData\Local\Temp\cctQ0nNg.s 			page 35


 226:Core/Lib/mpu6050.c ****   if (mpu == NULL || mpu->init_state != MPU6050_INIT_STATE_READY)
 1281              		.loc 1 226 1 discriminator 1 view .LVU378
 1282 0002 30B5     		push	{r4, r5, lr}
 1283              	.LCFI39:
 1284              		.cfi_def_cfa_offset 12
 1285              		.cfi_offset 4, -12
 1286              		.cfi_offset 5, -8
 1287              		.cfi_offset 14, -4
 1288 0004 85B0     		sub	sp, sp, #20
 1289              	.LCFI40:
 1290              		.cfi_def_cfa_offset 32
 1291 0006 0446     		mov	r4, r0
 227:Core/Lib/mpu6050.c ****   {
 1292              		.loc 1 227 25 discriminator 1 view .LVU379
 1293 0008 90F84850 		ldrb	r5, [r0, #72]	@ zero_extendqisi2
 227:Core/Lib/mpu6050.c ****   {
 1294              		.loc 1 227 19 discriminator 1 view .LVU380
 1295 000c 022D     		cmp	r5, #2
 1296 000e 02D0     		beq	.L107
 229:Core/Lib/mpu6050.c ****   }
 1297              		.loc 1 229 12 view .LVU381
 1298 0010 0120     		movs	r0, #1
 1299              	.LVL81:
 1300              	.L99:
 239:Core/Lib/mpu6050.c **** 
 1301              		.loc 1 239 1 view .LVU382
 1302 0012 05B0     		add	sp, sp, #20
 1303              	.LCFI41:
 1304              		.cfi_remember_state
 1305              		.cfi_def_cfa_offset 12
 1306              		@ sp needed
 1307 0014 30BD     		pop	{r4, r5, pc}
 1308              	.LVL82:
 1309              	.L107:
 1310              	.LCFI42:
 1311              		.cfi_restore_state
 231:Core/Lib/mpu6050.c ****   if (mpu6050_read_registers(mpu, MPU6050_REG_TEMP_OUT_H, buffer, 6, s_default_timeout) != MPU6050_
 1312              		.loc 1 231 3 is_stmt 1 view .LVU383
 232:Core/Lib/mpu6050.c ****   {
 1313              		.loc 1 232 3 view .LVU384
 232:Core/Lib/mpu6050.c ****   {
 1314              		.loc 1 232 7 is_stmt 0 view .LVU385
 1315 0016 6423     		movs	r3, #100
 1316 0018 0093     		str	r3, [sp]
 1317 001a 0623     		movs	r3, #6
 1318 001c 03AA     		add	r2, sp, #12
 1319 001e 4121     		movs	r1, #65
 1320 0020 FFF7FEFF 		bl	mpu6050_read_registers
 1321              	.LVL83:
 232:Core/Lib/mpu6050.c ****   {
 1322              		.loc 1 232 6 view .LVU386
 1323 0024 D8B9     		cbnz	r0, .L102
 236:Core/Lib/mpu6050.c ****   mpu->temp_scaled = (float) (mpu->temp_raw / 340) + 36.53f;
 1324              		.loc 1 236 3 is_stmt 1 view .LVU387
 236:Core/Lib/mpu6050.c ****   mpu->temp_scaled = (float) (mpu->temp_raw / 340) + 36.53f;
 1325              		.loc 1 236 36 is_stmt 0 view .LVU388
 1326 0026 9DF80C30 		ldrb	r3, [sp, #12]	@ zero_extendqisi2
ARM GAS  C:\Users\admin\AppData\Local\Temp\cctQ0nNg.s 			page 36


 236:Core/Lib/mpu6050.c ****   mpu->temp_scaled = (float) (mpu->temp_raw / 340) + 36.53f;
 1327              		.loc 1 236 40 view .LVU389
 1328 002a 1B02     		lsls	r3, r3, #8
 236:Core/Lib/mpu6050.c ****   mpu->temp_scaled = (float) (mpu->temp_raw / 340) + 36.53f;
 1329              		.loc 1 236 19 view .LVU390
 1330 002c 1BB2     		sxth	r3, r3
 236:Core/Lib/mpu6050.c ****   mpu->temp_scaled = (float) (mpu->temp_raw / 340) + 36.53f;
 1331              		.loc 1 236 54 view .LVU391
 1332 002e 9DF80D20 		ldrb	r2, [sp, #13]	@ zero_extendqisi2
 236:Core/Lib/mpu6050.c ****   mpu->temp_scaled = (float) (mpu->temp_raw / 340) + 36.53f;
 1333              		.loc 1 236 46 view .LVU392
 1334 0032 1343     		orrs	r3, r3, r2
 236:Core/Lib/mpu6050.c ****   mpu->temp_scaled = (float) (mpu->temp_raw / 340) + 36.53f;
 1335              		.loc 1 236 17 view .LVU393
 1336 0034 2384     		strh	r3, [r4, #32]	@ movhi
 237:Core/Lib/mpu6050.c ****   return MPU6050_OK;
 1337              		.loc 1 237 3 is_stmt 1 view .LVU394
 237:Core/Lib/mpu6050.c ****   return MPU6050_OK;
 1338              		.loc 1 237 22 is_stmt 0 view .LVU395
 1339 0036 0B4A     		ldr	r2, .L108
 1340 0038 82FB0312 		smull	r1, r2, r2, r3
 1341 003c DB17     		asrs	r3, r3, #31
 1342 003e C3EBE213 		rsb	r3, r3, r2, asr #7
 1343 0042 1BB2     		sxth	r3, r3
 1344 0044 07EE903A 		vmov	s15, r3	@ int
 1345 0048 F8EEE77A 		vcvt.f32.s32	s15, s15
 237:Core/Lib/mpu6050.c ****   return MPU6050_OK;
 1346              		.loc 1 237 52 view .LVU396
 1347 004c 9FED067A 		vldr.32	s14, .L108+4
 1348 0050 77EE877A 		vadd.f32	s15, s15, s14
 237:Core/Lib/mpu6050.c ****   return MPU6050_OK;
 1349              		.loc 1 237 20 view .LVU397
 1350 0054 C4ED0F7A 		vstr.32	s15, [r4, #60]
 238:Core/Lib/mpu6050.c **** }
 1351              		.loc 1 238 3 is_stmt 1 view .LVU398
 238:Core/Lib/mpu6050.c **** }
 1352              		.loc 1 238 10 is_stmt 0 view .LVU399
 1353 0058 DBE7     		b	.L99
 1354              	.LVL84:
 1355              	.L100:
 1356              	.LCFI43:
 1357              		.cfi_def_cfa_offset 0
 1358              		.cfi_restore 4
 1359              		.cfi_restore 5
 1360              		.cfi_restore 14
 229:Core/Lib/mpu6050.c ****   }
 1361              		.loc 1 229 12 view .LVU400
 1362 005a 0120     		movs	r0, #1
 1363              	.LVL85:
 239:Core/Lib/mpu6050.c **** 
 1364              		.loc 1 239 1 view .LVU401
 1365 005c 7047     		bx	lr
 1366              	.LVL86:
 1367              	.L102:
 1368              	.LCFI44:
 1369              		.cfi_def_cfa_offset 32
 1370              		.cfi_offset 4, -12
ARM GAS  C:\Users\admin\AppData\Local\Temp\cctQ0nNg.s 			page 37


 1371              		.cfi_offset 5, -8
 1372              		.cfi_offset 14, -4
 234:Core/Lib/mpu6050.c ****   }
 1373              		.loc 1 234 12 view .LVU402
 1374 005e 2846     		mov	r0, r5
 1375 0060 D7E7     		b	.L99
 1376              	.L109:
 1377 0062 00BF     		.align	2
 1378              	.L108:
 1379 0064 61606060 		.word	1616928865
 1380 0068 B81E1242 		.word	1108483768
 1381              		.cfi_endproc
 1382              	.LFE153:
 1384              		.section	.text.mpu6050_reset,"ax",%progbits
 1385              		.align	1
 1386              		.global	mpu6050_reset
 1387              		.syntax unified
 1388              		.thumb
 1389              		.thumb_func
 1391              	mpu6050_reset:
 1392              	.LVL87:
 1393              	.LFB154:
 242:Core/Lib/mpu6050.c ****   if (mpu == NULL)
 1394              		.loc 1 242 1 is_stmt 1 view -0
 1395              		.cfi_startproc
 1396              		@ args = 0, pretend = 0, frame = 0
 1397              		@ frame_needed = 0, uses_anonymous_args = 0
 243:Core/Lib/mpu6050.c ****   {
 1398              		.loc 1 243 3 view .LVU404
 243:Core/Lib/mpu6050.c ****   {
 1399              		.loc 1 243 6 is_stmt 0 view .LVU405
 1400 0000 50B1     		cbz	r0, .L112
 242:Core/Lib/mpu6050.c ****   if (mpu == NULL)
 1401              		.loc 1 242 1 view .LVU406
 1402 0002 10B5     		push	{r4, lr}
 1403              	.LCFI45:
 1404              		.cfi_def_cfa_offset 8
 1405              		.cfi_offset 4, -8
 1406              		.cfi_offset 14, -4
 1407 0004 0446     		mov	r4, r0
 249:Core/Lib/mpu6050.c ****   {
 1408              		.loc 1 249 3 is_stmt 1 view .LVU407
 249:Core/Lib/mpu6050.c ****   {
 1409              		.loc 1 249 7 is_stmt 0 view .LVU408
 1410 0006 6423     		movs	r3, #100
 1411 0008 8022     		movs	r2, #128
 1412 000a 6B21     		movs	r1, #107
 1413 000c FFF7FEFF 		bl	mpu6050_write_register
 1414              	.LVL88:
 249:Core/Lib/mpu6050.c ****   {
 1415              		.loc 1 249 6 view .LVU409
 1416 0010 20B9     		cbnz	r0, .L113
 253:Core/Lib/mpu6050.c ****   return MPU6050_OK;
 1417              		.loc 1 253 3 is_stmt 1 view .LVU410
 253:Core/Lib/mpu6050.c ****   return MPU6050_OK;
 1418              		.loc 1 253 19 is_stmt 0 view .LVU411
 1419 0012 84F84800 		strb	r0, [r4, #72]
ARM GAS  C:\Users\admin\AppData\Local\Temp\cctQ0nNg.s 			page 38


 254:Core/Lib/mpu6050.c ****   
 1420              		.loc 1 254 3 is_stmt 1 view .LVU412
 1421              	.L111:
 257:Core/Lib/mpu6050.c **** 
 1422              		.loc 1 257 1 is_stmt 0 view .LVU413
 1423 0016 10BD     		pop	{r4, pc}
 1424              	.LVL89:
 1425              	.L112:
 1426              	.LCFI46:
 1427              		.cfi_def_cfa_offset 0
 1428              		.cfi_restore 4
 1429              		.cfi_restore 14
 245:Core/Lib/mpu6050.c ****   }
 1430              		.loc 1 245 12 view .LVU414
 1431 0018 0620     		movs	r0, #6
 1432              	.LVL90:
 257:Core/Lib/mpu6050.c **** 
 1433              		.loc 1 257 1 view .LVU415
 1434 001a 7047     		bx	lr
 1435              	.LVL91:
 1436              	.L113:
 1437              	.LCFI47:
 1438              		.cfi_def_cfa_offset 8
 1439              		.cfi_offset 4, -8
 1440              		.cfi_offset 14, -4
 251:Core/Lib/mpu6050.c ****   }
 1441              		.loc 1 251 12 view .LVU416
 1442 001c 0220     		movs	r0, #2
 1443 001e FAE7     		b	.L111
 1444              		.cfi_endproc
 1445              	.LFE154:
 1447              		.text
 1448              	.Letext0:
 1449              		.file 2 "c:\\program files (x86)\\gnu arm embedded toolchain\\10 2021.10\\arm-none-eabi\\include\\
 1450              		.file 3 "c:\\program files (x86)\\gnu arm embedded toolchain\\10 2021.10\\arm-none-eabi\\include\\
 1451              		.file 4 "Drivers/CMSIS/Device/ST/STM32H7xx/Include/stm32h743xx.h"
 1452              		.file 5 "Drivers/STM32H7xx_HAL_Driver/Inc/stm32h7xx_hal_def.h"
 1453              		.file 6 "Drivers/STM32H7xx_HAL_Driver/Inc/stm32h7xx_hal_dma.h"
 1454              		.file 7 "Drivers/STM32H7xx_HAL_Driver/Inc/stm32h7xx_hal_i2c.h"
 1455              		.file 8 "Core/Lib/axis.h"
 1456              		.file 9 "Core/Lib/mpu6050.h"
 1457              		.file 10 "Drivers/STM32H7xx_HAL_Driver/Inc/stm32h7xx_hal.h"
ARM GAS  C:\Users\admin\AppData\Local\Temp\cctQ0nNg.s 			page 39

